(dp0
S'METTS MARK'
p1
(dp2
S'to_messages'
p3
I807
sS'deferral_payments'
p4
F0.0
sS'payments_stock_ratio'
p5
F1.8148965408794282
sS'expenses'
p6
I94299
sS'poi'
p7
I00
sS'deferred_income'
p8
F0.0
sS'email_address'
p9
S'mark.metts@enron.com'
p10
sS'long_term_incentive'
p11
F0.0
sS'bonus_salary_ratio'
p12
F1.6402943781644013
sS'restricted_stock_deferred'
p13
F0.0
sS'from_non_poi_to_this_person'
p14
I769
sS'shared_receipt_with_poi'
p15
I702
sS'loan_advances'
p16
F0.0
sS'from_messages'
p17
I29
sS'other'
p18
I1740
sS'to_poi_ratio'
p19
F0.034482758620689655
sS'total_incentives'
p20
F600000.0
sS'director_fees'
p21
F0.0
sS'bonus'
p22
I600000
sS'total_stock_value'
p23
I585062
sS'from_poi_to_this_person'
p24
I38
sS'from_this_person_to_poi'
p25
I1
sS'total_compensation'
p26
F1646889.0
sS'from_poi_ratio'
p27
F0.04708798017348203
sS'restricted_stock'
p28
I585062
sS'salary'
p29
I365788
sS'total_payments'
p30
I1061827
sS'total_poi_interact'
p31
F741.0
sS'exercised_stock_options'
p32
F0.0
ssS'BAXTER JOHN C'
p33
(dp34
g3
F0.0
sg4
I1295738
sg5
F0.5303780629257051
sg6
I11200
sg7
I00
sg8
I-1386055
sg9
F0.0
sg11
I1586055
sg12
F4.492665723206865
sg13
F0.0
sg14
F0.0
sg15
F0.0
sg16
F0.0
sg17
F0.0
sg18
I2660303
sg19
F0.0
sg20
F2786055.0
sg21
F0.0
sg22
I1200000
sg23
I10623258
sg24
F0.0
sg25
F0.0
sg26
F16257601.0
sg27
F0.0
sg28
I3942714
sg29
I267102
sg30
I5634343
sg31
F0.0
sg32
I6680544
ssS'ELLIOTT STEVEN'
p35
(dp36
g3
F0.0
sg4
F0.0
sg5
F0.03170136260833826
sg6
I78552
sg7
I00
sg8
I-400729
sg9
S'steven.elliott@enron.com'
p37
sg11
F0.0
sg12
F2.047490069673162
sg13
F0.0
sg14
F0.0
sg15
F0.0
sg16
F0.0
sg17
F0.0
sg18
I12961
sg19
F0.0
sg20
F350000.0
sg21
F0.0
sg22
I350000
sg23
I6678735
sg24
F0.0
sg25
F0.0
sg26
F6890460.0
sg27
F0.0
sg28
I1788391
sg29
I170941
sg30
I211725
sg31
F0.0
sg32
I4890344
ssS'CORDES WILLIAM R'
p38
(dp39
g3
I764
sg4
F0.0
sg5
F0.0
sg6
F0.0
sg7
I00
sg8
F0.0
sg9
S'bill.cordes@enron.com'
p40
sg11
F0.0
sg12
F0.0
sg13
F0.0
sg14
I754
sg15
I58
sg16
F0.0
sg17
I12
sg18
F0.0
sg19
F0.0
sg20
F0.0
sg21
F0.0
sg22
F0.0
sg23
I1038185
sg24
I10
sg25
I0
sg26
F1038185.0
sg27
F0.013089005235602094
sg28
I386335
sg29
F0.0
sg30
F0.0
sg31
F68.0
sg32
I651850
ssS'HANNON KEVIN P'
p41
(dp42
g3
I1045
sg4
F0.0
sg5
F0.045169623529098826
sg6
I34039
sg7
I01
sg8
I-3117011
sg9
S'kevin.hannon@enron.com'
p43
sg11
I1617011
sg12
F6.165405498719651
sg13
F0.0
sg14
I1013
sg15
I1035
sg16
F0.0
sg17
I32
sg18
I11350
sg19
F0.65625
sg20
F3117011.0
sg21
F0.0
sg22
I1500000
sg23
I6391065
sg24
I32
sg25
I21
sg26
F6679747.0
sg27
F0.03062200956937799
sg28
I853064
sg29
I243293
sg30
I288682
sg31
F1088.0
sg32
I5538001
ssS'MORDAUNT KRISTINA M'
p44
(dp45
g3
F0.0
sg4
F0.0
sg5
F3.014349431681934
sg6
I35018
sg7
I00
sg8
F0.0
sg9
S'kristina.mordaunt@enron.com'
p46
sg11
F0.0
sg12
F1.2168046335920448
sg13
F0.0
sg14
F0.0
sg15
F0.0
sg16
F0.0
sg17
F0.0
sg18
I1411
sg19
F0.0
sg20
F325000.0
sg21
F0.0
sg22
I325000
sg23
I208510
sg24
F0.0
sg25
F0.0
sg26
F837032.0
sg27
F0.0
sg28
I208510
sg29
I267093
sg30
I628522
sg31
F0.0
sg32
F0.0
ssS'MEYER ROCKFORD G'
p47
(dp48
g3
I232
sg4
I1848227
sg5
F1.9335487036457772
sg6
F0.0
sg7
I00
sg8
F0.0
sg9
S'rockford.meyer@enron.com'
p49
sg11
F0.0
sg12
F0.0
sg13
F0.0
sg14
I232
sg15
I22
sg16
F0.0
sg17
I28
sg18
F0.0
sg19
F0.0
sg20
F0.0
sg21
F0.0
sg22
F0.0
sg23
I955873
sg24
I0
sg25
I0
sg26
F2804100.0
sg27
F0.0
sg28
I462384
sg29
F0.0
sg30
I1848227
sg31
F22.0
sg32
I493489
ssS'MCMAHON JEFFREY'
p50
(dp51
g3
I2355
sg4
F0.0
sg5
F2.4655012012472524
sg6
I137108
sg7
I00
sg8
F0.0
sg9
S'jeffrey.mcmahon@enron.com'
p52
sg11
I694862
sg12
F7.018528916339135
sg13
F0.0
sg14
I2297
sg15
I2228
sg16
F0.0
sg17
I48
sg18
I297353
sg19
F0.5416666666666666
sg20
F3294862.0
sg21
F0.0
sg22
I2600000
sg23
I1662855
sg24
I58
sg25
I26
sg26
F5762626.0
sg27
F0.024628450106157114
sg28
I558801
sg29
I370448
sg30
I4099771
sg31
F2312.0
sg32
I1104054
ssS'HORTON STANLEY C'
p53
(dp54
g3
I2350
sg4
I3131860
sg5
F0.4315849411463805
sg6
F0.0
sg7
I00
sg8
F0.0
sg9
S'stanley.horton@enron.com'
p55
sg11
F0.0
sg12
F0.0
sg13
F0.0
sg14
I2306
sg15
I1074
sg16
F0.0
sg17
I1073
sg18
F0.0
sg19
F0.013979496738117428
sg20
F0.0
sg21
F0.0
sg22
F0.0
sg23
I7256648
sg24
I44
sg25
I15
sg26
F10388508.0
sg27
F0.01872340425531915
sg28
I2046079
sg29
F0.0
sg30
I3131860
sg31
F1133.0
sg32
I5210569
ssS'PIPER GREGORY F'
p56
(dp57
g3
I1238
sg4
I1130036
sg5
F1.9739279101205285
sg6
I43057
sg7
I00
sg8
I-33333
sg9
S'greg.piper@enron.com'
p58
sg11
F0.0
sg12
F2.0295193590777862
sg13
I-409554
sg14
I1177
sg15
I742
sg16
F0.0
sg17
I222
sg18
I778
sg19
F0.21621621621621623
sg20
F400000.0
sg21
F0.0
sg22
I400000
sg23
I880290
sg24
I61
sg25
I48
sg26
F2617919.0
sg27
F0.049273021001615507
sg28
I409554
sg29
I197091
sg30
I1737629
sg31
F851.0
sg32
I880290
ssS'HUMPHREY GENE E'
p59
(dp60
g3
I128
sg4
I2964506
sg5
F1.3580985890813257
sg6
I4994
sg7
I00
sg8
F0.0
sg9
S'gene.humphrey@enron.com'
p61
sg11
F0.0
sg12
F0.0
sg13
F0.0
sg14
I118
sg15
I119
sg16
F0.0
sg17
I17
sg18
F0.0
sg19
F1.0
sg20
F0.0
sg21
F0.0
sg22
F0.0
sg23
I2282768
sg24
I10
sg25
I17
sg26
F5382992.0
sg27
F0.078125
sg28
F0.0
sg29
I130724
sg30
I3100224
sg31
F146.0
sg32
I2282768
ssS'UMANOFF ADAM S'
p62
(dp63
g3
I111
sg4
F0.0
sg5
F0.0
sg6
I53122
sg7
I00
sg8
F0.0
sg9
S'adam.umanoff@enron.com'
p64
sg11
F0.0
sg12
F2.7331256562100426
sg13
F0.0
sg14
I99
sg15
I41
sg16
F0.0
sg17
I18
sg18
F0.0
sg19
F0.0
sg20
F788750.0
sg21
F0.0
sg22
I788750
sg23
F0.0
sg24
I12
sg25
I0
sg26
F1130461.0
sg27
F0.10810810810810811
sg28
F0.0
sg29
I288589
sg30
I1130461
sg31
F53.0
sg32
F0.0
ssS'BLACHMAN JEREMY M'
p65
(dp66
g3
I2475
sg4
F0.0
sg5
F2.1112029708053823
sg6
I84208
sg7
I00
sg8
F0.0
sg9
S'jeremy.blachman@enron.com'
p67
sg11
I831809
sg12
F3.419890080709406
sg13
F0.0
sg14
I2450
sg15
I2326
sg16
F0.0
sg17
I14
sg18
I272
sg19
F0.14285714285714285
sg20
F1681809.0
sg21
F0.0
sg22
I850000
sg23
I954354
sg24
I25
sg25
I2
sg26
F2969189.0
sg27
F0.010101010101010102
sg28
I189041
sg29
I248546
sg30
I2014835
sg31
F2353.0
sg32
I765313
ssS'SUNDE MARTIN'
p68
(dp69
g3
I2647
sg4
F0.0
sg5
F2.2106378412407715
sg6
F0.0
sg7
I00
sg8
F0.0
sg9
S'marty.sunde@enron.com'
p70
sg11
I476451
sg12
F2.7185944090164127
sg13
F0.0
sg14
I2610
sg15
I2565
sg16
F0.0
sg17
I38
sg18
I111122
sg19
F0.34210526315789475
sg20
F1176451.0
sg21
F0.0
sg22
I700000
sg23
I698920
sg24
I37
sg25
I13
sg26
F2243979.0
sg27
F0.013978088401964487
sg28
I698920
sg29
I257486
sg30
I1545059
sg31
F2615.0
sg32
F0.0
ssS'GIBBS DANA R'
p71
(dp72
g3
I169
sg4
I504610
sg5
F0.43570882780538933
sg6
F0.0
sg7
I00
sg8
F0.0
sg9
S'dana.gibbs@enron.com'
p73
sg11
I461912
sg12
F0.0
sg13
F0.0
sg14
I169
sg15
I23
sg16
F0.0
sg17
I12
sg18
F0.0
sg19
F0.0
sg20
F461912.0
sg21
F0.0
sg22
F0.0
sg23
I2218275
sg24
I0
sg25
I0
sg26
F3184797.0
sg27
F0.0
sg28
F0.0
sg29
F0.0
sg30
I966522
sg31
F23.0
sg32
I2218275
ssS'LOWRY CHARLES P'
p74
(dp75
g3
F0.0
sg4
F0.0
sg5
F0.0
sg6
F0.0
sg7
I00
sg8
F0.0
sg9
F0.0
sg11
F0.0
sg12
F0.0
sg13
I-153686
sg14
F0.0
sg15
F0.0
sg16
F0.0
sg17
F0.0
sg18
F0.0
sg19
F0.0
sg20
F0.0
sg21
F0.0
sg22
F0.0
sg23
I372205
sg24
F0.0
sg25
F0.0
sg26
F372205.0
sg27
F0.0
sg28
I153686
sg29
F0.0
sg30
F0.0
sg31
F0.0
sg32
I372205
ssS'COLWELL WESLEY'
p76
(dp77
g3
I1758
sg4
I27610
sg5
F2.1344233088241613
sg6
I16514
sg7
I01
sg8
I-144062
sg9
S'wes.colwell@enron.com'
p78
sg11
F0.0
sg12
F4.158839960906905
sg13
F0.0
sg14
I1518
sg15
I1132
sg16
F0.0
sg17
I40
sg18
I101740
sg19
F0.275
sg20
F1200000.0
sg21
F0.0
sg22
I1200000
sg23
I698242
sg24
I240
sg25
I11
sg26
F2188586.0
sg27
F0.13651877133105803
sg28
I698242
sg29
I288542
sg30
I1490344
sg31
F1383.0
sg32
F0.0
ssS'MULLER MARK S'
p79
(dp80
g3
I136
sg4
I842924
sg5
F2.259995426467765
sg6
F0.0
sg7
I00
sg8
I-719000
sg9
S's..muller@enron.com'
p81
sg11
I1725545
sg12
F4.3710809285765375
sg13
F0.0
sg14
I124
sg15
I114
sg16
F0.0
sg17
I16
sg18
I947
sg19
F0.0
sg20
F2825545.0
sg21
F0.0
sg22
I1100000
sg23
I1416848
sg24
I12
sg25
I0
sg26
F4618918.0
sg27
F0.08823529411764706
sg28
I360528
sg29
I251654
sg30
I3202070
sg31
F126.0
sg32
I1056320
ssS'JACKSON CHARLENE R'
p82
(dp83
g3
I258
sg4
F0.0
sg5
F0.759470054496476
sg6
I10181
sg7
I00
sg8
F0.0
sg9
S'charlene.jackson@enron.com'
p84
sg11
F0.0
sg12
F0.8663769502145149
sg13
F0.0
sg14
I233
sg15
I117
sg16
F0.0
sg17
I56
sg18
I2435
sg19
F0.3392857142857143
sg20
F250000.0
sg21
F0.0
sg22
I250000
sg23
I725735
sg24
I25
sg25
I19
sg26
F1276909.0
sg27
F0.09689922480620156
sg28
I540672
sg29
I288558
sg30
I551174
sg31
F161.0
sg32
I185063
ssS'WESTFAHL RICHARD K'
p85
(dp86
g3
F0.0
sg4
F0.0
sg5
F1.9799314161016288
sg6
I51870
sg7
I00
sg8
I-10800
sg9
S'dick.westfahl@enron.com'
p87
sg11
I256191
sg12
F0.0
sg13
F0.0
sg14
F0.0
sg15
F0.0
sg16
F0.0
sg17
F0.0
sg18
I401130
sg19
F0.0
sg20
F256191.0
sg21
F0.0
sg22
F0.0
sg23
I384930
sg24
F0.0
sg25
F0.0
sg26
F1147065.0
sg27
F0.0
sg28
I384930
sg29
I63744
sg30
I762135
sg31
F0.0
sg32
F0.0
ssS'WALTERS GARETH W'
p88
(dp89
g3
F0.0
sg4
I53625
sg5
F0.08483697925614052
sg6
I33785
sg7
I00
sg8
F0.0
sg9
F0.0
sg11
F0.0
sg12
F0.0
sg13
F0.0
sg14
F0.0
sg15
F0.0
sg16
F0.0
sg17
F0.0
sg18
F0.0
sg19
F0.0
sg20
F0.0
sg21
F0.0
sg22
F0.0
sg23
I1030329
sg24
F0.0
sg25
F0.0
sg26
F1117739.0
sg27
F0.0
sg28
F0.0
sg29
F0.0
sg30
I87410
sg31
F0.0
sg32
I1030329
ssS'WALLS JR ROBERT H'
p90
(dp91
g3
I671
sg4
F0.0
sg5
F0.30492980416840354
sg6
I50936
sg7
I00
sg8
F0.0
sg9
S'rob.walls@enron.com'
p92
sg11
I540751
sg12
F2.380345626184922
sg13
F0.0
sg14
I654
sg15
I215
sg16
F0.0
sg17
I146
sg18
I2
sg19
F0.0
sg20
F1390751.0
sg21
F0.0
sg22
I850000
sg23
I5898997
sg24
I17
sg25
I0
sg26
F7697777.0
sg27
F0.02533532041728763
sg28
I1552453
sg29
I357091
sg30
I1798780
sg31
F232.0
sg32
I4346544
ssS'KITCHEN LOUISE'
p93
(dp94
g3
I8305
sg4
F0.0
sg5
F6.344120275686612
sg6
I5774
sg7
I00
sg8
F0.0
sg9
S'louise.kitchen@enron.com'
p95
sg11
F0.0
sg12
F11.420487617981005
sg13
F0.0
sg14
I8054
sg15
I3669
sg16
F0.0
sg17
I1728
sg18
I93925
sg19
F0.11226851851851852
sg20
F3100000.0
sg21
F0.0
sg22
I3100000
sg23
I547143
sg24
I251
sg25
I194
sg26
F4018284.0
sg27
F0.030222757375075255
sg28
I466101
sg29
I271442
sg30
I3471141
sg31
F4114.0
sg32
I81042
ssS'CHAN RONNIE'
p96
(dp97
g3
F0.0
sg4
F0.0
sg5
F0.0
sg6
F0.0
sg7
I00
sg8
I-98784
sg9
F0.0
sg11
F0.0
sg12
F0.0
sg13
I-32460
sg14
F0.0
sg15
F0.0
sg16
F0.0
sg17
F0.0
sg18
F0.0
sg19
F0.0
sg20
F0.0
sg21
I98784
sg22
F0.0
sg23
F0.0
sg24
F0.0
sg25
F0.0
sg26
F0.0
sg27
F0.0
sg28
I32460
sg29
F0.0
sg30
F0.0
sg31
F0.0
sg32
F0.0
ssS'BELFER ROBERT'
p98
(dp99
g3
F0.0
sg4
F0.0
sg5
F0.0
sg6
I3285
sg7
I00
sg8
I-102500
sg9
F0.0
sg11
F0.0
sg12
F0.0
sg13
I-44093
sg14
F0.0
sg15
F0.0
sg16
F0.0
sg17
F0.0
sg18
F0.0
sg19
F0.0
sg20
F0.0
sg21
I102500
sg22
F0.0
sg23
F0.0
sg24
F0.0
sg25
F0.0
sg26
F3285.0
sg27
F0.0
sg28
I44093
sg29
F0.0
sg30
I3285
sg31
F0.0
sg32
F0.0
ssS'SHANKMAN JEFFREY A'
p100
(dp101
g3
I3221
sg4
F0.0
sg5
F1.4665302468346335
sg6
I178979
sg7
I00
sg8
F0.0
sg9
S'jeffrey.shankman@enron.com'
p102
sg11
I554422
sg12
F6.576567689322943
sg13
F0.0
sg14
I3127
sg15
I1730
sg16
F0.0
sg17
I2681
sg18
I1191
sg19
F0.030958597538232
sg20
F2554422.0
sg21
F0.0
sg22
I2000000
sg23
I2072035
sg24
I94
sg25
I83
sg26
F5110737.0
sg27
F0.029183483390251473
sg28
I630137
sg29
I304110
sg30
I3038702
sg31
F1907.0
sg32
I1441898
ssS'WODRASKA JOHN'
p103
(dp104
g3
F0.0
sg4
F0.0
sg5
F0.0
sg6
F0.0
sg7
I00
sg8
F0.0
sg9
S'john.wodraska@enron.com'
p105
sg11
F0.0
sg12
F0.0
sg13
F0.0
sg14
F0.0
sg15
F0.0
sg16
F0.0
sg17
F0.0
sg18
I189583
sg19
F0.0
sg20
F0.0
sg21
F0.0
sg22
F0.0
sg23
F0.0
sg24
F0.0
sg25
F0.0
sg26
F189583.0
sg27
F0.0
sg28
F0.0
sg29
F0.0
sg30
I189583
sg31
F0.0
sg32
F0.0
ssS'BERGSIEKER RICHARD P'
p106
(dp107
g3
I383
sg4
F0.0
sg5
F0.9387196643453384
sg6
I59175
sg7
I00
sg8
I-485813
sg9
S'rick.bergsieker@enron.com'
p108
sg11
I180250
sg12
F1.3303391832781686
sg13
F0.0
sg14
I379
sg15
I233
sg16
F0.0
sg17
I59
sg18
I427316
sg19
F0.0
sg20
F430250.0
sg21
F0.0
sg22
I250000
sg23
I659249
sg24
I4
sg25
I0
sg26
F1278099.0
sg27
F0.010443864229765013
sg28
I659249
sg29
I187922
sg30
I618850
sg31
F237.0
sg32
F0.0
ssS'URQUHART JOHN A'
p109
(dp110
g3
F0.0
sg4
F0.0
sg5
F0.0
sg6
I228656
sg7
I00
sg8
I-36666
sg9
F0.0
sg11
F0.0
sg12
F0.0
sg13
F0.0
sg14
F0.0
sg15
F0.0
sg16
F0.0
sg17
F0.0
sg18
F0.0
sg19
F0.0
sg20
F0.0
sg21
I36666
sg22
F0.0
sg23
F0.0
sg24
F0.0
sg25
F0.0
sg26
F228656.0
sg27
F0.0
sg28
F0.0
sg29
F0.0
sg30
I228656
sg31
F0.0
sg32
F0.0
ssS'BIBI PHILIPPE A'
p111
(dp112
g3
I1607
sg4
F0.0
sg5
F1.110519162432694
sg6
I38559
sg7
I00
sg8
F0.0
sg9
S'philippe.bibi@enron.com'
p113
sg11
I369721
sg12
F4.681100058513751
sg13
F0.0
sg14
I1584
sg15
I1336
sg16
F0.0
sg17
I40
sg18
I425688
sg19
F0.2
sg20
F1369721.0
sg21
F0.0
sg22
I1000000
sg23
I1843816
sg24
I23
sg25
I8
sg26
F3891409.0
sg27
F0.01431238332296204
sg28
I378082
sg29
I213625
sg30
I2047593
sg31
F1367.0
sg32
I1465734
ssS'RIEKER PAULA H'
p114
(dp115
g3
I1328
sg4
I214678
sg5
F0.5727799500439578
sg6
I33271
sg7
I01
sg8
I-100000
sg9
S'paula.rieker@enron.com'
p116
sg11
F0.0
sg12
F2.8089774920646384
sg13
F0.0
sg14
I1293
sg15
I1258
sg16
F0.0
sg17
I82
sg18
I1950
sg19
F0.5853658536585366
sg20
F700000.0
sg21
F0.0
sg22
I700000
sg23
I1918887
sg24
I35
sg25
I48
sg26
F3017987.0
sg27
F0.02635542168674699
sg28
I283649
sg29
I249201
sg30
I1099100
sg31
F1341.0
sg32
I1635238
ssS'WHALEY DAVID A'
p117
(dp118
g3
F0.0
sg4
F0.0
sg5
F0.0
sg6
F0.0
sg7
I00
sg8
F0.0
sg9
F0.0
sg11
F0.0
sg12
F0.0
sg13
F0.0
sg14
F0.0
sg15
F0.0
sg16
F0.0
sg17
F0.0
sg18
F0.0
sg19
F0.0
sg20
F0.0
sg21
F0.0
sg22
F0.0
sg23
I98718
sg24
F0.0
sg25
F0.0
sg26
F98718.0
sg27
F0.0
sg28
F0.0
sg29
F0.0
sg30
F0.0
sg31
F0.0
sg32
I98718
ssS'BECK SALLY W'
p119
(dp120
g3
I7315
sg4
F0.0
sg5
F7.689368151269172
sg6
I37172
sg7
I00
sg8
F0.0
sg9
S'sally.beck@enron.com'
p121
sg11
F0.0
sg12
F3.025980201443825
sg13
F0.0
sg14
I7171
sg15
I2639
sg16
F0.0
sg17
I4343
sg18
I566
sg19
F0.08887865530739121
sg20
F700000.0
sg21
F0.0
sg22
I700000
sg23
I126027
sg24
I144
sg25
I386
sg26
F1095095.0
sg27
F0.01968557758031442
sg28
I126027
sg29
I231330
sg30
I969068
sg31
F3169.0
sg32
F0.0
ssS'HAUG DAVID L'
p122
(dp123
g3
I573
sg4
F0.0
sg5
F0.00021422460389870738
sg6
I475
sg7
I00
sg8
F0.0
sg9
S'david.haug@enron.com'
p124
sg11
F0.0
sg12
F0.0
sg13
F0.0
sg14
I569
sg15
I471
sg16
F0.0
sg17
I19
sg18
F0.0
sg19
F0.3684210526315789
sg20
F0.0
sg21
F0.0
sg22
F0.0
sg23
I2217299
sg24
I4
sg25
I7
sg26
F2217774.0
sg27
F0.006980802792321117
sg28
I2217299
sg29
F0.0
sg30
I475
sg31
F482.0
sg32
F0.0
ssS'ECHOLS JOHN B'
p125
(dp126
g3
F0.0
sg4
F0.0
sg5
F2.6684652521802565
sg6
I21530
sg7
I00
sg8
F0.0
sg9
S'john.echols@enron.com'
p127
sg11
I2234774
sg12
F1.0974237976350518
sg13
F0.0
sg14
F0.0
sg15
F0.0
sg16
F0.0
sg17
F0.0
sg18
I53775
sg19
F0.0
sg20
F2434774.0
sg21
F0.0
sg22
I200000
sg23
I1008941
sg24
F0.0
sg25
F0.0
sg26
F3701265.0
sg27
F0.0
sg28
I407503
sg29
I182245
sg30
I2692324
sg31
F0.0
sg32
I601438
ssS'MENDELSOHN JOHN'
p128
(dp129
g3
F0.0
sg4
F0.0
sg5
F0.0
sg6
I148
sg7
I00
sg8
I-103750
sg9
F0.0
sg11
F0.0
sg12
F0.0
sg13
F0.0
sg14
F0.0
sg15
F0.0
sg16
F0.0
sg17
F0.0
sg18
F0.0
sg19
F0.0
sg20
F0.0
sg21
I103750
sg22
F0.0
sg23
F0.0
sg24
F0.0
sg25
F0.0
sg26
F148.0
sg27
F0.0
sg28
F0.0
sg29
F0.0
sg30
I148
sg31
F0.0
sg32
F0.0
ssS'HICKERSON GARY J'
p130
(dp131
g3
I1320
sg4
F0.0
sg5
F4.719598454758148
sg6
I98849
sg7
I00
sg8
F0.0
sg9
S'gary.hickerson@enron.com'
p132
sg11
I69223
sg12
F8.02689481934765
sg13
F0.0
sg14
I1280
sg15
I900
sg16
F0.0
sg17
I27
sg18
I1936
sg19
F0.037037037037037035
sg20
F1769223.0
sg21
F0.0
sg22
I1700000
sg23
I441096
sg24
I40
sg25
I1
sg26
F2522892.0
sg27
F0.030303030303030304
sg28
I441096
sg29
I211788
sg30
I2081796
sg31
F941.0
sg32
F0.0
ssS'CLINE KENNETH W'
p133
(dp134
g3
F0.0
sg4
F0.0
sg5
F0.0
sg6
F0.0
sg7
I00
sg8
F0.0
sg9
F0.0
sg11
F0.0
sg12
F0.0
sg13
I-472568
sg14
F0.0
sg15
F0.0
sg16
F0.0
sg17
F0.0
sg18
F0.0
sg19
F0.0
sg20
F0.0
sg21
F0.0
sg22
F0.0
sg23
I189518
sg24
F0.0
sg25
F0.0
sg26
F189518.0
sg27
F0.0
sg28
I662086
sg29
F0.0
sg30
F0.0
sg31
F0.0
sg32
F0.0
ssS'LEWIS RICHARD'
p135
(dp136
g3
I952
sg4
F0.0
sg5
F0.0
sg6
F0.0
sg7
I00
sg8
F0.0
sg9
S'richard.lewis@enron.com'
p137
sg11
F0.0
sg12
F0.0
sg13
F0.0
sg14
I942
sg15
I739
sg16
F0.0
sg17
I26
sg18
F0.0
sg19
F0.0
sg20
F0.0
sg21
F0.0
sg22
F0.0
sg23
I850477
sg24
I10
sg25
I0
sg26
F850477.0
sg27
F0.01050420168067227
sg28
F0.0
sg29
F0.0
sg30
F0.0
sg31
F749.0
sg32
I850477
ssS'HAYES ROBERT E'
p138
(dp139
g3
I504
sg4
I7961
sg5
F0.05257631193121029
sg6
F0.0
sg7
I00
sg8
F0.0
sg9
S'robert.hayes@enron.com'
p140
sg11
F0.0
sg12
F0.0
sg13
F0.0
sg14
I488
sg15
I50
sg16
F0.0
sg17
I12
sg18
F0.0
sg19
F0.0
sg20
F0.0
sg21
F0.0
sg22
F0.0
sg23
I151418
sg24
I16
sg25
I0
sg26
F159379.0
sg27
F0.031746031746031744
sg28
I151418
sg29
F0.0
sg30
I7961
sg31
F66.0
sg32
F0.0
ssS'MCCARTY DANNY J'
p141
(dp142
g3
I1433
sg4
F0.0
sg5
F0.0
sg6
F0.0
sg7
I00
sg8
F0.0
sg9
S'danny.mccarty@enron.com'
p143
sg11
F0.0
sg12
F0.0
sg13
F0.0
sg14
I1408
sg15
I508
sg16
F0.0
sg17
I215
sg18
F0.0
sg19
F0.009302325581395349
sg20
F0.0
sg21
F0.0
sg22
F0.0
sg23
I758931
sg24
I25
sg25
I2
sg26
F758931.0
sg27
F0.017445917655268667
sg28
I94556
sg29
F0.0
sg30
F0.0
sg31
F535.0
sg32
I664375
ssS'KOPPER MICHAEL J'
p144
(dp145
g3
F0.0
sg4
F0.0
sg5
F2.6929196208854127
sg6
I118134
sg7
I01
sg8
F0.0
sg9
S'michael.kopper@enron.com'
p146
sg11
I602671
sg12
F3.5665723011078665
sg13
F0.0
sg14
F0.0
sg15
F0.0
sg16
F0.0
sg17
F0.0
sg18
I907502
sg19
F0.0
sg20
F1402671.0
sg21
F0.0
sg22
I800000
sg23
I985032
sg24
F0.0
sg25
F0.0
sg26
F3637644.0
sg27
F0.0
sg28
I985032
sg29
I224305
sg30
I2652612
sg31
F0.0
sg32
F0.0
ssS'LEFF DANIEL P'
p147
(dp148
g3
I2822
sg4
F0.0
sg5
F7.3897949673811745
sg6
F0.0
sg7
I00
sg8
F0.0
sg9
S'dan.leff@enron.com'
p149
sg11
I1387399
sg12
F3.653021414011529
sg13
F0.0
sg14
I2755
sg15
I2672
sg16
F0.0
sg17
I63
sg18
I3083
sg19
F0.2222222222222222
sg20
F2387399.0
sg21
F0.0
sg22
I1000000
sg23
I360528
sg24
I67
sg25
I14
sg26
F3024756.0
sg27
F0.02374202693125443
sg28
I360528
sg29
I273746
sg30
I2664228
sg31
F2753.0
sg32
F0.0
ssS'LAVORATO JOHN J'
p150
(dp151
g3
I7259
sg4
F0.0
sg5
F2.0177020419790894
sg6
I49537
sg7
I00
sg8
F0.0
sg9
S'john.lavorato@enron.com'
p152
sg11
I2035380
sg12
F23.57878852184575
sg13
F0.0
sg14
I6731
sg15
I3962
sg16
F0.0
sg17
I2585
sg18
I1552
sg19
F0.15899419729206962
sg20
F10035380.0
sg21
F0.0
sg22
I8000000
sg23
I5167144
sg24
I528
sg25
I411
sg26
F15592901.0
sg27
F0.07273729163796666
sg28
I1008149
sg29
I339288
sg30
I10425757
sg31
F4901.0
sg32
I4158995
ssS'BERBERIAN DAVID'
p153
(dp154
g3
F0.0
sg4
F0.0
sg5
F0.09162356994821977
sg6
I11892
sg7
I00
sg8
F0.0
sg9
S'david.berberian@enron.com'
p155
sg11
F0.0
sg12
F0.0
sg13
F0.0
sg14
F0.0
sg15
F0.0
sg16
F0.0
sg17
F0.0
sg18
F0.0
sg19
F0.0
sg20
F0.0
sg21
F0.0
sg22
F0.0
sg23
I2493616
sg24
F0.0
sg25
F0.0
sg26
F2722090.0
sg27
F0.0
sg28
I869220
sg29
I216582
sg30
I228474
sg31
F0.0
sg32
I1624396
ssS'DETMERING TIMOTHY J'
p156
(dp157
g3
F0.0
sg4
I875307
sg5
F0.5940153807082819
sg6
I52255
sg7
I00
sg8
I-775241
sg9
S'timothy.detmering@enron.com'
p158
sg11
I415657
sg12
F2.019002375296912
sg13
I-315068
sg14
F0.0
sg15
F0.0
sg16
F0.0
sg17
F0.0
sg18
I1105
sg19
F0.0
sg20
F840657.0
sg21
F0.0
sg22
I425000
sg23
I2027865
sg24
F0.0
sg25
F0.0
sg26
F3232448.0
sg27
F0.0
sg28
I315068
sg29
I210500
sg30
I1204583
sg31
F0.0
sg32
I2027865
ssS'WAKEHAM JOHN'
p159
(dp160
g3
F0.0
sg4
F0.0
sg5
F0.0
sg6
I103773
sg7
I00
sg8
F0.0
sg9
F0.0
sg11
F0.0
sg12
F0.0
sg13
F0.0
sg14
F0.0
sg15
F0.0
sg16
F0.0
sg17
F0.0
sg18
F0.0
sg19
F0.0
sg20
F0.0
sg21
I109298
sg22
F0.0
sg23
F0.0
sg24
F0.0
sg25
F0.0
sg26
F213071.0
sg27
F0.0
sg28
F0.0
sg29
F0.0
sg30
I213071
sg31
F0.0
sg32
F0.0
ssS'POWERS WILLIAM'
p161
(dp162
g3
I653
sg4
F0.0
sg5
F0.0
sg6
F0.0
sg7
I00
sg8
I-17500
sg9
S'ken.powers@enron.com'
p163
sg11
F0.0
sg12
F0.0
sg13
F0.0
sg14
I653
sg15
I12
sg16
F0.0
sg17
I26
sg18
F0.0
sg19
F0.0
sg20
F0.0
sg21
I17500
sg22
F0.0
sg23
F0.0
sg24
I0
sg25
I0
sg26
F0.0
sg27
F0.0
sg28
F0.0
sg29
F0.0
sg30
F0.0
sg31
F12.0
sg32
F0.0
ssS'GOLD JOSEPH'
p164
(dp165
g3
F0.0
sg4
F0.0
sg5
F2.446383420444821
sg6
F0.0
sg7
I00
sg8
F0.0
sg9
S'joe.gold@enron.com'
p166
sg11
I304805
sg12
F2.748460861917326
sg13
F0.0
sg14
F0.0
sg15
F0.0
sg16
F0.0
sg17
F0.0
sg18
I819288
sg19
F0.0
sg20
F1054805.0
sg21
F0.0
sg22
I750000
sg23
I877611
sg24
F0.0
sg25
F0.0
sg26
F3024584.0
sg27
F0.0
sg28
I441096
sg29
I272880
sg30
I2146973
sg31
F0.0
sg32
I436515
ssS'BANNANTINE JAMES M'
p167
(dp168
g3
I566
sg4
F0.0
sg5
F0.17473047992681207
sg6
I56301
sg7
I00
sg8
I-5104
sg9
S'james.bannantine@enron.com'
p169
sg11
F0.0
sg12
F0.0
sg13
I-560222
sg14
I527
sg15
I465
sg16
F0.0
sg17
I29
sg18
I864523
sg19
F0.0
sg20
F0.0
sg21
F0.0
sg22
F0.0
sg23
I5243487
sg24
I39
sg25
I0
sg26
F6159684.0
sg27
F0.06890459363957598
sg28
I1757552
sg29
I477
sg30
I916197
sg31
F504.0
sg32
I4046157
ssS'DUNCAN JOHN H'
p170
(dp171
g3
F0.0
sg4
F0.0
sg5
F0.20845191661062543
sg6
F0.0
sg7
I00
sg8
I-25000
sg9
F0.0
sg11
F0.0
sg12
F0.0
sg13
F0.0
sg14
F0.0
sg15
F0.0
sg16
F0.0
sg17
F0.0
sg18
F0.0
sg19
F0.0
sg20
F0.0
sg21
I102492
sg22
F0.0
sg23
I371750
sg24
F0.0
sg25
F0.0
sg26
F449242.0
sg27
F0.0
sg28
F0.0
sg29
F0.0
sg30
I77492
sg31
F0.0
sg32
I371750
ssS'SHAPIRO RICHARD S'
p172
(dp173
g3
I15149
sg4
F0.0
sg5
F1.0714761180586443
sg6
I137767
sg7
I00
sg8
F0.0
sg9
S'richard.shapiro@enron.com'
p174
sg11
F0.0
sg12
F2.4156743819590005
sg13
F0.0
sg14
I15075
sg15
I4527
sg16
F0.0
sg17
I1215
sg18
I705
sg19
F0.053497942386831275
sg20
F650000.0
sg21
F0.0
sg22
I650000
sg23
I987001
sg24
I74
sg25
I65
sg26
F2044549.0
sg27
F0.0048848108786058485
sg28
I379164
sg29
I269076
sg30
I1057548
sg31
F4666.0
sg32
I607837
ssS'SHERRIFF JOHN R'
p175
(dp176
g3
I3187
sg4
F0.0
sg5
F1.3855586257766903
sg6
F0.0
sg7
I00
sg8
F0.0
sg9
S'john.sherriff@enron.com'
p177
sg11
I554422
sg12
F3.4982974952189934
sg13
F0.0
sg14
I3159
sg15
I2103
sg16
F0.0
sg17
I92
sg18
I1852186
sg19
F0.25
sg20
F2054422.0
sg21
F0.0
sg22
I1500000
sg23
I3128982
sg24
I28
sg25
I23
sg26
F7464370.0
sg27
F0.008785691873235017
sg28
I1293424
sg29
I428780
sg30
I4335388
sg31
F2154.0
sg32
I1835558
ssS'SHELBY REX'
p178
(dp179
g3
I225
sg4
F0.0
sg5
F0.8036060885076131
sg6
I22884
sg7
I01
sg8
I-4167
sg9
S'rex.shelby@enron.com'
p180
sg11
F0.0
sg12
F0.9440909348388437
sg13
F0.0
sg14
I212
sg15
I91
sg16
F0.0
sg17
I39
sg18
I1573324
sg19
F0.358974358974359
sg20
F200000.0
sg21
F0.0
sg22
I200000
sg23
I2493616
sg24
I13
sg25
I14
sg26
F4497501.0
sg27
F0.057777777777777775
sg28
I869220
sg29
I211844
sg30
I2003885
sg31
F118.0
sg32
I1624396
ssS'LEMAISTRE CHARLES'
p181
(dp182
g3
F0.0
sg4
F0.0
sg5
F0.2119076337319983
sg6
F0.0
sg7
I00
sg8
I-25000
sg9
F0.0
sg11
F0.0
sg12
F0.0
sg13
F0.0
sg14
F0.0
sg15
F0.0
sg16
F0.0
sg17
F0.0
sg18
F0.0
sg19
F0.0
sg20
F0.0
sg21
I112492
sg22
F0.0
sg23
I412878
sg24
F0.0
sg25
F0.0
sg26
F500370.0
sg27
F0.0
sg28
F0.0
sg29
F0.0
sg30
I87492
sg31
F0.0
sg32
I412878
ssS'DEFFNER JOSEPH M'
p183
(dp184
g3
I714
sg4
F0.0
sg5
F7.5914917939087125
sg6
I41626
sg7
I00
sg8
F0.0
sg9
S'joseph.deffner@enron.com'
p185
sg11
I335349
sg12
F2.910911551952494
sg13
F0.0
sg14
I599
sg15
I552
sg16
F0.0
sg17
I74
sg18
I25553
sg19
F0.05405405405405406
sg20
F935349.0
sg21
F0.0
sg22
I600000
sg23
I159211
sg24
I115
sg25
I4
sg26
F1367860.0
sg27
F0.16106442577030813
sg28
I141833
sg29
I206121
sg30
I1208649
sg31
F671.0
sg32
I17378
ssS'KISHKILL JOSEPH G'
p186
(dp187
g3
F0.0
sg4
F0.0
sg5
F0.681489559586444
sg6
I116335
sg7
I00
sg8
I-51042
sg9
S'joe.kishkill@enron.com'
p188
sg11
F0.0
sg12
F0.0
sg13
F0.0
sg14
F0.0
sg15
F0.0
sg16
F0.0
sg17
F0.0
sg18
I465357
sg19
F0.0
sg20
F0.0
sg21
F0.0
sg22
F0.0
sg23
I1034346
sg24
F0.0
sg25
F0.0
sg26
F1739242.0
sg27
F0.0
sg28
I1034346
sg29
I174246
sg30
I704896
sg31
F0.0
sg32
F0.0
ssS'WHALLEY LAWRENCE G'
p189
(dp190
g3
I6019
sg4
F0.0
sg5
F0.7694470448683752
sg6
I57838
sg7
I00
sg8
F0.0
sg9
S'greg.whalley@enron.com'
p191
sg11
I808346
sg12
F5.878157550297435
sg13
F0.0
sg14
I5833
sg15
I3920
sg16
F0.0
sg17
I556
sg18
I301026
sg19
F0.04316546762589928
sg20
F3808346.0
sg21
F0.0
sg22
I3000000
sg23
I6079137
sg24
I186
sg25
I24
sg26
F10756711.0
sg27
F0.03090214321315833
sg28
I2796177
sg29
I510364
sg30
I4677574
sg31
F4130.0
sg32
I3282960
ssS'MCCONNELL MICHAEL S'
p192
(dp193
g3
I3329
sg4
F0.0
sg5
F0.6775797985282846
sg6
I81364
sg7
I00
sg8
F0.0
sg9
S'mike.mcconnell@enron.com'
p194
sg11
I554422
sg12
F3.013384907872605
sg13
F0.0
sg14
I3237
sg15
I2189
sg16
F0.0
sg17
I2742
sg18
I540
sg19
F0.07075127644055434
sg20
F1654422.0
sg21
F0.0
sg22
I1100000
sg23
I3101279
sg24
I92
sg25
I194
sg26
F5202643.0
sg27
F0.02763592670471613
sg28
I1478269
sg29
I365038
sg30
I2101364
sg31
F2475.0
sg32
I1623010
ssS'PIRO JIM'
p195
(dp196
g3
I58
sg4
F0.0
sg5
F0.0
sg6
F0.0
sg7
I00
sg8
F0.0
sg9
S'jim.piro@enron.com'
p197
sg11
F0.0
sg12
F0.0
sg13
F0.0
sg14
I58
sg15
I3
sg16
F0.0
sg17
I16
sg18
F0.0
sg19
F0.0625
sg20
F0.0
sg21
F0.0
sg22
F0.0
sg23
I47304
sg24
I0
sg25
I1
sg26
F47304.0
sg27
F0.0
sg28
I47304
sg29
F0.0
sg30
F0.0
sg31
F4.0
sg32
F0.0
ssS'DELAINEY DAVID W'
p198
(dp199
g3
I3093
sg4
F0.0
sg5
F1.3136790619161152
sg6
I86174
sg7
I01
sg8
F0.0
sg9
S'david.delainey@enron.com'
p200
sg11
I1294981
sg12
F8.215509238340138
sg13
F0.0
sg14
I3027
sg15
I2097
sg16
F0.0
sg17
I3069
sg18
I1661
sg19
F0.198435972629521
sg20
F4294981.0
sg21
F0.0
sg22
I3000000
sg23
I3614261
sg24
I66
sg25
I609
sg26
F8362240.0
sg27
F0.02133850630455868
sg28
I1323148
sg29
I365163
sg30
I4747979
sg31
F2772.0
sg32
I2291113
ssS'SULLIVAN-SHAKLOVITZ COLLEEN'
p201
(dp202
g3
F0.0
sg4
I181993
sg5
F0.7335395907881457
sg6
F0.0
sg7
I00
sg8
F0.0
sg9
F0.0
sg11
I554422
sg12
F0.6143298582741017
sg13
F0.0
sg14
F0.0
sg15
F0.0
sg16
F0.0
sg17
F0.0
sg18
I162
sg19
F0.0
sg20
F654422.0
sg21
F0.0
sg22
I100000
sg23
I1362375
sg24
F0.0
sg25
F0.0
sg26
F2361731.0
sg27
F0.0
sg28
F0.0
sg29
I162779
sg30
I999356
sg31
F0.0
sg32
I1362375
ssS'WROBEL BRUCE'
p203
(dp204
g3
F0.0
sg4
F0.0
sg5
F0.0
sg6
F0.0
sg7
I00
sg8
F0.0
sg9
F0.0
sg11
F0.0
sg12
F0.0
sg13
F0.0
sg14
F0.0
sg15
F0.0
sg16
F0.0
sg17
F0.0
sg18
F0.0
sg19
F0.0
sg20
F0.0
sg21
F0.0
sg22
F0.0
sg23
I139130
sg24
F0.0
sg25
F0.0
sg26
F139130.0
sg27
F0.0
sg28
F0.0
sg29
F0.0
sg30
F0.0
sg31
F0.0
sg32
I139130
ssS'LINDHOLM TOD A'
p205
(dp206
g3
F0.0
sg4
I204075
sg5
F0.28584515150407547
sg6
I57727
sg7
I00
sg8
F0.0
sg9
S'tod.lindholm@enron.com'
p207
sg11
I175000
sg12
F0.8458197473536415
sg13
F0.0
sg14
F0.0
sg15
F0.0
sg16
F0.0
sg17
F0.0
sg18
I2630
sg19
F0.0
sg20
F375000.0
sg21
F0.0
sg22
I200000
sg23
I3064208
sg24
F0.0
sg25
F0.0
sg26
F3940097.0
sg27
F0.0
sg28
I514847
sg29
I236457
sg30
I875889
sg31
F0.0
sg32
I2549361
ssS'MEYER JEROME J'
p208
(dp209
g3
F0.0
sg4
F0.0
sg5
F0.0
sg6
I2151
sg7
I00
sg8
I-38346
sg9
F0.0
sg11
F0.0
sg12
F0.0
sg13
F0.0
sg14
F0.0
sg15
F0.0
sg16
F0.0
sg17
F0.0
sg18
F0.0
sg19
F0.0
sg20
F0.0
sg21
I38346
sg22
F0.0
sg23
F0.0
sg24
F0.0
sg25
F0.0
sg26
F2151.0
sg27
F0.0
sg28
F0.0
sg29
F0.0
sg30
I2151
sg31
F0.0
sg32
F0.0
ssS'LAY KENNETH L'
p210
(dp211
g3
I4273
sg4
I202911
sg5
F2.108727927493823
sg6
I99832
sg7
I01
sg8
I-300000
sg9
S'kenneth.lay@enron.com'
p212
sg11
I3600000
sg12
F6.527896031132468
sg13
F0.0
sg14
I4150
sg15
I2411
sg16
I81525000
sg17
I36
sg18
I10359729
sg19
F0.4444444444444444
sg20
F10600000.0
sg21
F0.0
sg22
I7000000
sg23
I49110078
sg24
I123
sg25
I16
sg26
F152669871.0
sg27
F0.028785396676807865
sg28
I14761694
sg29
I1072321
sg30
I103559793
sg31
F2550.0
sg32
I34348384
ssS'BUTTS ROBERT H'
p213
(dp214
g3
F0.0
sg4
F0.0
sg5
F3.0448375193657378
sg6
I9410
sg7
I00
sg8
I-75000
sg9
S'bob.butts@enron.com'
p215
sg11
I175000
sg12
F2.8678933602532926
sg13
F0.0
sg14
F0.0
sg15
F0.0
sg16
F0.0
sg17
F0.0
sg18
I150656
sg19
F0.0
sg20
F925000.0
sg21
F0.0
sg22
I750000
sg23
I417619
sg24
F0.0
sg25
F0.0
sg26
F1689201.0
sg27
F0.0
sg28
I417619
sg29
I261516
sg30
I1271582
sg31
F0.0
sg32
F0.0
ssS'OLSON CINDY K'
p216
(dp217
g3
I1184
sg4
I77716
sg5
F0.5069724405325685
sg6
I63791
sg7
I00
sg8
F0.0
sg9
S'cindy.olson@enron.com'
p218
sg11
I100000
sg12
F2.279094925823057
sg13
F0.0
sg14
I1164
sg15
I856
sg16
F0.0
sg17
I52
sg18
I972
sg19
F0.28846153846153844
sg20
F850000.0
sg21
F0.0
sg22
I750000
sg23
I2606763
sg24
I20
sg25
I15
sg26
F3928320.0
sg27
F0.016891891891891893
sg28
I969729
sg29
I329078
sg30
I1321557
sg31
F891.0
sg32
I1637034
ssS'MCDONALD REBECCA'
p219
(dp220
g3
I894
sg4
F0.0
sg5
F0.0
sg6
F0.0
sg7
I00
sg8
F0.0
sg9
S'rebecca.mcdonald@enron.com'
p221
sg11
F0.0
sg12
F0.0
sg13
F0.0
sg14
I840
sg15
I720
sg16
F0.0
sg17
I13
sg18
F0.0
sg19
F0.07692307692307693
sg20
F0.0
sg21
F0.0
sg22
F0.0
sg23
I1691366
sg24
I54
sg25
I1
sg26
F1691366.0
sg27
F0.06040268456375839
sg28
I934065
sg29
F0.0
sg30
F0.0
sg31
F775.0
sg32
I757301
ssS'CUMBERLAND MICHAEL S'
p222
(dp223
g3
F0.0
sg4
F0.0
sg5
F3.8855246705780515
sg6
I22344
sg7
I00
sg8
F0.0
sg9
F0.0
sg11
I275000
sg12
F1.7577163748857485
sg13
F0.0
sg14
F0.0
sg15
F0.0
sg16
F0.0
sg17
F0.0
sg18
I713
sg19
F0.0
sg20
F600000.0
sg21
F0.0
sg22
I325000
sg23
I207940
sg24
F0.0
sg25
F0.0
sg26
F1015896.0
sg27
F0.0
sg28
I207940
sg29
I184899
sg30
I807956
sg31
F0.0
sg32
F0.0
ssS'GAHN ROBERT S'
p224
(dp225
g3
F0.0
sg4
I73122
sg5
F2.8266328109551893
sg6
I50080
sg7
I00
sg8
I-1042
sg9
F0.0
sg11
F0.0
sg12
F2.6554622724053165
sg13
F0.0
sg14
F0.0
sg15
F0.0
sg16
F0.0
sg17
F0.0
sg18
I76547
sg19
F0.0
sg20
F509870.0
sg21
F0.0
sg22
I509870
sg23
I318607
sg24
F0.0
sg25
F0.0
sg26
F1219192.0
sg27
F0.0
sg28
I235370
sg29
I192008
sg30
I900585
sg31
F0.0
sg32
I83237
ssS'MCCLELLAN GEORGE'
p226
(dp227
g3
I1744
sg4
F0.0
sg5
F1.391304210216477
sg6
I228763
sg7
I00
sg8
I-125000
sg9
S'george.mcclellan@enron.com'
p228
sg11
F0.0
sg12
F3.4166878627858153
sg13
F0.0
sg14
I1692
sg15
I1469
sg16
F0.0
sg17
I49
sg18
I51587
sg19
F0.0
sg20
F900000.0
sg21
F0.0
sg22
I900000
sg23
I947861
sg24
I52
sg25
I0
sg26
F2266624.0
sg27
F0.02981651376146789
sg28
I441096
sg29
I263413
sg30
I1318763
sg31
F1521.0
sg32
I506765
ssS'HERMANN ROBERT J'
p229
(dp230
g3
F0.0
sg4
F0.0
sg5
F1.9419231529099041
sg6
I48357
sg7
I00
sg8
I-280000
sg9
S'robert.hermann@enron.com'
p231
sg11
I150000
sg12
F2.665011821231007
sg13
F0.0
sg14
F0.0
sg15
F0.0
sg16
F0.0
sg17
F0.0
sg18
I416441
sg19
F0.0
sg20
F850000.0
sg21
F0.0
sg22
I700000
sg23
I668132
sg24
F0.0
sg25
F0.0
sg26
F1965593.0
sg27
F0.0
sg28
I480632
sg29
I262663
sg30
I1297461
sg31
F0.0
sg32
I187500
ssS'SCRIMSHAW MATTHEW'
p232
(dp233
g3
F0.0
sg4
F0.0
sg5
F0.0
sg6
F0.0
sg7
I00
sg8
F0.0
sg9
S'matthew.scrimshaw@enron.com'
p234
sg11
F0.0
sg12
F0.0
sg13
F0.0
sg14
F0.0
sg15
F0.0
sg16
F0.0
sg17
F0.0
sg18
F0.0
sg19
F0.0
sg20
F0.0
sg21
F0.0
sg22
F0.0
sg23
I759557
sg24
F0.0
sg25
F0.0
sg26
F759557.0
sg27
F0.0
sg28
F0.0
sg29
F0.0
sg30
F0.0
sg31
F0.0
sg32
I759557
ssS'GATHMANN WILLIAM D'
p235
(dp236
g3
F0.0
sg4
F0.0
sg5
F0.0
sg6
F0.0
sg7
I00
sg8
F0.0
sg9
F0.0
sg11
F0.0
sg12
F0.0
sg13
I-72419
sg14
F0.0
sg15
F0.0
sg16
F0.0
sg17
F0.0
sg18
F0.0
sg19
F0.0
sg20
F0.0
sg21
F0.0
sg22
F0.0
sg23
I1945360
sg24
F0.0
sg25
F0.0
sg26
F1945360.0
sg27
F0.0
sg28
I264013
sg29
F0.0
sg30
F0.0
sg31
F0.0
sg32
I1753766
ssS'HAEDICKE MARK E'
p237
(dp238
g3
I4009
sg4
I2157527
sg5
F4.805246957392285
sg6
I76169
sg7
I00
sg8
I-934484
sg9
S'mark.haedicke@enron.com'
p239
sg11
I983346
sg12
F3.073838957567658
sg13
I-329825
sg14
I3829
sg15
I1847
sg16
F0.0
sg17
I1941
sg18
I52382
sg19
F0.03142709943328181
sg20
F2133346.0
sg21
F0.0
sg22
I1150000
sg23
I803094
sg24
I180
sg25
I61
sg26
F4662159.0
sg27
F0.04489897730107259
sg28
I524169
sg29
I374125
sg30
I3859065
sg31
F2088.0
sg32
I608750
ssS'BOWEN JR RAYMOND M'
p240
(dp241
g3
I1858
sg4
F0.0
sg5
F10.59129555057428
sg6
I65907
sg7
I01
sg8
I-833
sg9
S'raymond.bowen@enron.com'
p242
sg11
I974293
sg12
F4.845639462887786
sg13
F0.0
sg14
I1718
sg15
I1593
sg16
F0.0
sg17
I27
sg18
I1621
sg19
F0.5555555555555556
sg20
F2324293.0
sg21
F0.0
sg22
I1350000
sg23
I252055
sg24
I140
sg25
I15
sg26
F2921644.0
sg27
F0.07534983853606028
sg28
I252055
sg29
I278601
sg30
I2669589
sg31
F1748.0
sg32
F0.0
ssS'GILLIS JOHN'
p243
(dp244
g3
F0.0
sg4
F0.0
sg5
F0.0
sg6
F0.0
sg7
I00
sg8
F0.0
sg9
F0.0
sg11
F0.0
sg12
F0.0
sg13
F0.0
sg14
F0.0
sg15
F0.0
sg16
F0.0
sg17
F0.0
sg18
F0.0
sg19
F0.0
sg20
F0.0
sg21
F0.0
sg22
F0.0
sg23
I85641
sg24
F0.0
sg25
F0.0
sg26
F85641.0
sg27
F0.0
sg28
I75838
sg29
F0.0
sg30
F0.0
sg31
F0.0
sg32
I9803
ssS'FITZGERALD JAY L'
p245
(dp246
g3
I936
sg4
F0.0
sg5
F0.8727026786969941
sg6
I23870
sg7
I00
sg8
F0.0
sg9
S'jay.fitzgerald@enron.com'
p247
sg11
I556416
sg12
F1.7574074724965731
sg13
F0.0
sg14
I935
sg15
I723
sg16
F0.0
sg17
I16
sg18
I285414
sg19
F0.5
sg20
F906416.0
sg21
F0.0
sg22
I350000
sg23
I1621236
sg24
I1
sg25
I8
sg26
F3036093.0
sg27
F0.0010683760683760685
sg28
I956775
sg29
I199157
sg30
I1414857
sg31
F732.0
sg32
I664461
ssS'MORAN MICHAEL P'
p248
(dp249
g3
I672
sg4
F0.0
sg5
F0.0
sg6
F0.0
sg7
I00
sg8
F0.0
sg9
S'michael.moran@enron.com'
p250
sg11
F0.0
sg12
F0.0
sg13
F0.0
sg14
I672
sg15
I127
sg16
F0.0
sg17
I19
sg18
F0.0
sg19
F0.0
sg20
F0.0
sg21
F0.0
sg22
F0.0
sg23
I221141
sg24
I0
sg25
I0
sg26
F221141.0
sg27
F0.0
sg28
I161602
sg29
F0.0
sg30
F0.0
sg31
F127.0
sg32
I59539
ssS'REDMOND BRIAN L'
p251
(dp252
g3
I1671
sg4
F0.0
sg5
F0.014134907514571011
sg6
I14689
sg7
I00
sg8
F0.0
sg9
S'brian.redmond@enron.com'
p253
sg11
F0.0
sg12
F0.0
sg13
F0.0
sg14
I1467
sg15
I1063
sg16
F0.0
sg17
I221
sg18
F0.0
sg19
F0.22171945701357465
sg20
F0.0
sg21
F0.0
sg22
F0.0
sg23
I7890324
sg24
I204
sg25
I49
sg26
F8001853.0
sg27
F0.12208258527827648
sg28
I381285
sg29
I96840
sg30
I111529
sg31
F1316.0
sg32
I7509039
ssS'BAZELIDES PHILIP J'
p254
(dp255
g3
F0.0
sg4
I684694
sg5
F0.5377056477047037
sg6
F0.0
sg7
I00
sg8
F0.0
sg9
F0.0
sg11
I93750
sg12
F0.0
sg13
F0.0
sg14
F0.0
sg15
F0.0
sg16
F0.0
sg17
F0.0
sg18
I874
sg19
F0.0
sg20
F93750.0
sg21
F0.0
sg22
F0.0
sg23
I1599641
sg24
F0.0
sg25
F0.0
sg26
F2459777.0
sg27
F0.0
sg28
F0.0
sg29
I80818
sg30
I860136
sg31
F0.0
sg32
I1599641
ssS'BELDEN TIMOTHY N'
p256
(dp257
g3
I7991
sg4
I2144013
sg5
F4.953277422898069
sg6
I17355
sg7
I01
sg8
I-2334434
sg9
S'tim.belden@enron.com'
p258
sg11
F0.0
sg12
F24.532820246823583
sg13
F0.0
sg14
I7763
sg15
I5521
sg16
F0.0
sg17
I484
sg18
I210698
sg19
F0.2231404958677686
sg20
F5249999.0
sg21
F0.0
sg22
I5249999
sg23
I1110705
sg24
I228
sg25
I108
sg26
F6612335.0
sg27
F0.028532098610937303
sg28
I157569
sg29
I213999
sg30
I5501630
sg31
F5857.0
sg32
I953136
ssS'DURAN WILLIAM D'
p259
(dp260
g3
I904
sg4
F0.0
sg5
F1.2756720356387614
sg6
I25785
sg7
I00
sg8
F0.0
sg9
S'w.duran@enron.com'
p261
sg11
I1105218
sg12
F3.559698517266911
sg13
F0.0
sg14
I798
sg15
I599
sg16
F0.0
sg17
I12
sg18
I1568
sg19
F0.25
sg20
F1855218.0
sg21
F0.0
sg22
I750000
sg23
I1640910
sg24
I106
sg25
I3
sg26
F3734173.0
sg27
F0.1172566371681416
sg28
I189041
sg29
I210692
sg30
I2093263
sg31
F708.0
sg32
I1451869
ssS'THORN TERENCE H'
p262
(dp263
g3
I266
sg4
I16586
sg5
F0.18918463961529297
sg6
I46145
sg7
I00
sg8
F0.0
sg9
S'terence.thorn@enron.com'
p264
sg11
I200000
sg12
F0.0
sg13
F0.0
sg14
I266
sg15
I73
sg16
F0.0
sg17
I41
sg18
I426629
sg19
F0.0
sg20
F200000.0
sg21
F0.0
sg22
F0.0
sg23
I4817796
sg24
I0
sg25
I0
sg26
F5729249.0
sg27
F0.0
sg28
I365320
sg29
I222093
sg30
I911453
sg31
F73.0
sg32
I4452476
ssS'FASTOW ANDREW S'
p265
(dp266
g3
F0.0
sg4
F0.0
sg5
F1.3509065922430301
sg6
I55921
sg7
I01
sg8
I-1386055
sg9
S'andrew.fastow@enron.com'
p267
sg11
I1736055
sg12
F2.949865894558178
sg13
F0.0
sg14
F0.0
sg15
F0.0
sg16
F0.0
sg17
F0.0
sg18
I277464
sg19
F0.0
sg20
F3036055.0
sg21
F0.0
sg22
I1300000
sg23
I1794412
sg24
F0.0
sg25
F0.0
sg26
F4218495.0
sg27
F0.0
sg28
I1794412
sg29
I440698
sg30
I2424083
sg31
F0.0
sg32
F0.0
ssS'FOY JOE'
p268
(dp269
g3
I57
sg4
I181755
sg5
F0.5292283233459704
sg6
F0.0
sg7
I00
sg8
F0.0
sg9
S'tracy.foy@enron.com'
p270
sg11
F0.0
sg12
F0.0
sg13
F0.0
sg14
I57
sg15
I2
sg16
F0.0
sg17
I13
sg18
F0.0
sg19
F0.0
sg20
F0.0
sg21
F0.0
sg22
F0.0
sg23
I343434
sg24
I0
sg25
I0
sg26
F525189.0
sg27
F0.0
sg28
F0.0
sg29
F0.0
sg30
I181755
sg31
F2.0
sg32
I343434
ssS'CALGER CHRISTOPHER F'
p271
(dp272
g3
I2598
sg4
F0.0
sg5
F13.007506328009077
sg6
I35818
sg7
I01
sg8
I-262500
sg9
S'christopher.calger@enron.com'
p273
sg11
I375304
sg12
F5.204234998272194
sg13
F0.0
sg14
I2399
sg15
I2188
sg16
F0.0
sg17
I144
sg18
I486
sg19
F0.1736111111111111
sg20
F1625304.0
sg21
F0.0
sg22
I1250000
sg23
I126027
sg24
I199
sg25
I25
sg26
F1765324.0
sg27
F0.07659738260200154
sg28
I126027
sg29
I240189
sg30
I1639297
sg31
F2412.0
sg32
F0.0
ssS'RICE KENNETH D'
p274
(dp275
g3
I905
sg4
F0.0
sg5
F0.02240430858298615
sg6
I46950
sg7
I01
sg8
I-3504386
sg9
S'ken.rice@enron.com'
p276
sg11
I1617011
sg12
F4.160366682832663
sg13
F0.0
sg14
I863
sg15
I864
sg16
F0.0
sg17
I18
sg18
I174839
sg19
F0.2222222222222222
sg20
F3367011.0
sg21
F0.0
sg22
I1750000
sg23
I22542539
sg24
I42
sg25
I4
sg26
F23047589.0
sg27
F0.04640883977900553
sg28
I2748364
sg29
I420636
sg30
I505050
sg31
F910.0
sg32
I19794175
ssS'KAMINSKI WINCENTY J'
p277
(dp278
g3
I4607
sg4
F0.0
sg5
F1.1135038938073045
sg6
I83585
sg7
I00
sg8
F0.0
sg9
S'vince.kaminski@enron.com'
p279
sg11
I323466
sg12
F1.4540114357999425
sg13
F0.0
sg14
I4566
sg15
I583
sg16
F0.0
sg17
I14368
sg18
I4669
sg19
F0.011901447661469933
sg20
F723466.0
sg21
F0.0
sg22
I400000
sg23
I976037
sg24
I41
sg25
I171
sg26
F2062858.0
sg27
F0.008899500759713479
sg28
I126027
sg29
I275101
sg30
I1086821
sg31
F795.0
sg32
I850010
ssS'COX DAVID'
p280
(dp281
g3
I102
sg4
F0.0
sg5
F2.222194648056122
sg6
I27861
sg7
I00
sg8
I-41250
sg9
S'chip.cox@enron.com'
p282
sg11
F0.0
sg12
F2.5454360331924857
sg13
F0.0
sg14
I102
sg15
I71
sg16
F0.0
sg17
I33
sg18
I494
sg19
F0.12121212121212122
sg20
F800000.0
sg21
F0.0
sg22
I800000
sg23
I495633
sg24
I0
sg25
I4
sg26
F1597026.0
sg27
F0.0
sg28
I378082
sg29
I314288
sg30
I1101393
sg31
F75.0
sg32
I117551
ssS'OVERDYKE JR JERE C'
p283
(dp284
g3
F0.0
sg4
F0.0
sg5
F0.03418183878305226
sg6
I18834
sg7
I00
sg8
F0.0
sg9
S'jere.overdyke@enron.com'
p285
sg11
I135836
sg12
F0.0
sg13
F0.0
sg14
F0.0
sg15
F0.0
sg16
F0.0
sg17
F0.0
sg18
I176
sg19
F0.0
sg20
F135836.0
sg21
F0.0
sg22
F0.0
sg23
I7307594
sg24
F0.0
sg25
F0.0
sg26
F7557381.0
sg27
F0.0
sg28
I2041016
sg29
I94941
sg30
I249787
sg31
F0.0
sg32
I5266578
ssS'PEREIRA PAULO V. FERRAZ'
p286
(dp287
g3
F0.0
sg4
F0.0
sg5
F0.0
sg6
I27942
sg7
I00
sg8
I-101250
sg9
F0.0
sg11
F0.0
sg12
F0.0
sg13
F0.0
sg14
F0.0
sg15
F0.0
sg16
F0.0
sg17
F0.0
sg18
F0.0
sg19
F0.0
sg20
F0.0
sg21
I101250
sg22
F0.0
sg23
F0.0
sg24
F0.0
sg25
F0.0
sg26
F27942.0
sg27
F0.0
sg28
F0.0
sg29
F0.0
sg30
I27942
sg31
F0.0
sg32
F0.0
ssS'STABLER FRANK'
p288
(dp289
g3
F0.0
sg4
F0.0
sg5
F2.1731739536556103
sg6
I16514
sg7
I00
sg8
F0.0
sg9
S'frank.stabler@enron.com'
p290
sg11
F0.0
sg12
F2.0876652387036434
sg13
F0.0
sg14
F0.0
sg15
F0.0
sg16
F0.0
sg17
F0.0
sg18
I356071
sg19
F0.0
sg20
F500000.0
sg21
F0.0
sg22
I500000
sg23
I511734
sg24
F0.0
sg25
F0.0
sg26
F1623821.0
sg27
F0.0
sg28
I511734
sg29
I239502
sg30
I1112087
sg31
F0.0
sg32
F0.0
ssS'SKILLING JEFFREY K'
p291
(dp292
g3
I3627
sg4
F0.0
sg5
F0.3327517874831875
sg6
I29336
sg7
I01
sg8
F0.0
sg9
S'jeff.skilling@enron.com'
p293
sg11
I1920000
sg12
F5.03933380007163
sg13
F0.0
sg14
I3539
sg15
I2042
sg16
F0.0
sg17
I108
sg18
I22122
sg19
F0.2777777777777778
sg20
F7520000.0
sg21
F0.0
sg22
I5600000
sg23
I26093672
sg24
I88
sg25
I30
sg26
F34776388.0
sg27
F0.0242624758753791
sg28
I6843672
sg29
I1111258
sg30
I8682716
sg31
F2160.0
sg32
I19250000
ssS'BLAKE JR. NORMAN P'
p294
(dp295
g3
F0.0
sg4
F0.0
sg5
F0.0
sg6
I1279
sg7
I00
sg8
I-113784
sg9
F0.0
sg11
F0.0
sg12
F0.0
sg13
F0.0
sg14
F0.0
sg15
F0.0
sg16
F0.0
sg17
F0.0
sg18
F0.0
sg19
F0.0
sg20
F0.0
sg21
I113784
sg22
F0.0
sg23
F0.0
sg24
F0.0
sg25
F0.0
sg26
F1279.0
sg27
F0.0
sg28
F0.0
sg29
F0.0
sg30
I1279
sg31
F0.0
sg32
F0.0
ssS'SHERRICK JEFFREY B'
p296
(dp297
g3
I613
sg4
F0.0
sg5
F0.0
sg6
F0.0
sg7
I00
sg8
F0.0
sg9
S'jeffrey.sherrick@enron.com'
p298
sg11
F0.0
sg12
F0.0
sg13
F0.0
sg14
I574
sg15
I583
sg16
F0.0
sg17
I25
sg18
F0.0
sg19
F0.72
sg20
F0.0
sg21
F0.0
sg22
F0.0
sg23
I1832468
sg24
I39
sg25
I18
sg26
F1832468.0
sg27
F0.0636215334420881
sg28
I405999
sg29
F0.0
sg30
F0.0
sg31
F640.0
sg32
I1426469
ssS'PRENTICE JAMES'
p299
(dp300
g3
F0.0
sg4
I564348
sg5
F0.5153674751607247
sg6
F0.0
sg7
I00
sg8
F0.0
sg9
S'james.prentice@enron.com'
p301
sg11
F0.0
sg12
F0.0
sg13
F0.0
sg14
F0.0
sg15
F0.0
sg16
F0.0
sg17
F0.0
sg18
F0.0
sg19
F0.0
sg20
F0.0
sg21
F0.0
sg22
F0.0
sg23
I1095040
sg24
F0.0
sg25
F0.0
sg26
F1659388.0
sg27
F0.0
sg28
I208809
sg29
F0.0
sg30
I564348
sg31
F0.0
sg32
I886231
ssS'GRAY RODNEY'
p302
(dp303
g3
F0.0
sg4
I93585
sg5
F0.0
sg6
F0.0
sg7
I00
sg8
F0.0
sg9
F0.0
sg11
I365625
sg12
F0.0
sg13
F0.0
sg14
F0.0
sg15
F0.0
sg16
F0.0
sg17
F0.0
sg18
I680833
sg19
F0.0
sg20
F365625.0
sg21
F0.0
sg22
F0.0
sg23
F0.0
sg24
F0.0
sg25
F0.0
sg26
F1146658.0
sg27
F0.0
sg28
F0.0
sg29
I6615
sg30
I1146658
sg31
F0.0
sg32
F0.0
ssS'PICKERING MARK R'
p304
(dp305
g3
I898
sg4
F0.0
sg5
F48.15230224321133
sg6
I31653
sg7
I00
sg8
F0.0
sg9
S'mark.pickering@enron.com'
p306
sg11
F0.0
sg12
F0.45798939601885086
sg13
F0.0
sg14
I891
sg15
I728
sg16
I400000
sg17
I67
sg18
F0.0
sg19
F0.0
sg20
F300000.0
sg21
F0.0
sg22
I300000
sg23
I28798
sg24
I7
sg25
I0
sg26
F1415488.0
sg27
F0.0077951002227171495
sg28
F0.0
sg29
I655037
sg30
I1386690
sg31
F735.0
sg32
I28798
ssS'NOLES JAMES L'
p307
(dp308
g3
F0.0
sg4
I774401
sg5
F2.10032681954408
sg6
F0.0
sg7
I00
sg8
F0.0
sg9
F0.0
sg11
F0.0
sg12
F0.0
sg13
I-94556
sg14
F0.0
sg15
F0.0
sg16
F0.0
sg17
F0.0
sg18
F0.0
sg19
F0.0
sg20
F0.0
sg21
F0.0
sg22
F0.0
sg23
I368705
sg24
F0.0
sg25
F0.0
sg26
F1143106.0
sg27
F0.0
sg28
I463261
sg29
F0.0
sg30
I774401
sg31
F0.0
sg32
F0.0
ssS'KEAN STEVEN J'
p309
(dp310
g3
I12754
sg4
F0.0
sg5
F0.28398174609442667
sg6
I41953
sg7
I00
sg8
F0.0
sg9
S'steven.kean@enron.com'
p311
sg11
I300000
sg12
F2.473178380463869
sg13
F0.0
sg14
I12614
sg15
I3639
sg16
F0.0
sg17
I6759
sg18
I1231
sg19
F0.05725699067909454
sg20
F1300000.0
sg21
F0.0
sg22
I1000000
sg23
I6153642
sg24
I140
sg25
I387
sg26
F7901164.0
sg27
F0.010976948408342482
sg28
I4131594
sg29
I404338
sg30
I1747522
sg31
F4166.0
sg32
I2022048
ssS'FOWLER PEGGY'
p312
(dp313
g3
I517
sg4
F0.0
sg5
F0.0
sg6
F0.0
sg7
I00
sg8
F0.0
sg9
S'kulvinder.fowler@enron.com'
p314
sg11
F0.0
sg12
F0.0
sg13
F0.0
sg14
I517
sg15
I10
sg16
F0.0
sg17
I36
sg18
F0.0
sg19
F0.0
sg20
F0.0
sg21
F0.0
sg22
F0.0
sg23
I1884748
sg24
I0
sg25
I0
sg26
F1884748.0
sg27
F0.0
sg28
I560170
sg29
F0.0
sg30
F0.0
sg31
F10.0
sg32
I1324578
ssS'WASAFF GEORGE'
p315
(dp316
g3
I400
sg4
I831299
sg5
F0.5030059418593512
sg6
F0.0
sg7
I00
sg8
I-583325
sg9
S'george.wasaff@enron.com'
p317
sg11
I200000
sg12
F1.2500192310650933
sg13
F0.0
sg14
I378
sg15
I337
sg16
F0.0
sg17
I30
sg18
I1425
sg19
F0.23333333333333334
sg20
F525000.0
sg21
F0.0
sg22
I325000
sg23
I2056427
sg24
I22
sg25
I7
sg26
F3090822.0
sg27
F0.055
sg28
I388167
sg29
I259996
sg30
I1034395
sg31
F366.0
sg32
I1668260
ssS'WHITE JR THOMAS E'
p318
(dp319
g3
F0.0
sg4
F0.0
sg5
F0.12773001117331126
sg6
I81353
sg7
I00
sg8
F0.0
sg9
S'thomas.white@enron.com'
p320
sg11
F0.0
sg12
F1.417130908254945
sg13
F0.0
sg14
F0.0
sg15
F0.0
sg16
F0.0
sg17
F0.0
sg18
I1085463
sg19
F0.0
sg20
F450000.0
sg21
F0.0
sg22
I450000
sg23
I15144123
sg24
F0.0
sg25
F0.0
sg26
F17078482.0
sg27
F0.0
sg28
I13847074
sg29
I317543
sg30
I1934359
sg31
F0.0
sg32
I1297049
ssS'CHRISTODOULOU DIOMEDES'
p321
(dp322
g3
F0.0
sg4
F0.0
sg5
F0.0
sg6
F0.0
sg7
I00
sg8
F0.0
sg9
S'diomedes.christodoulou@enron.com'
p323
sg11
F0.0
sg12
F0.0
sg13
F0.0
sg14
F0.0
sg15
F0.0
sg16
F0.0
sg17
F0.0
sg18
F0.0
sg19
F0.0
sg20
F0.0
sg21
F0.0
sg22
F0.0
sg23
I6077885
sg24
F0.0
sg25
F0.0
sg26
F6077885.0
sg27
F0.0
sg28
I950730
sg29
F0.0
sg30
F0.0
sg31
F0.0
sg32
I5127155
ssS'ALLEN PHILLIP K'
p324
(dp325
g3
I2902
sg4
I2869717
sg5
F2.592850935595051
sg6
I13868
sg7
I00
sg8
I-3081055
sg9
S'phillip.allen@enron.com'
p326
sg11
I304805
sg12
F20.672922185635414
sg13
I-126027
sg14
I2855
sg15
I1407
sg16
F0.0
sg17
I2195
sg18
I152
sg19
F0.029612756264236904
sg20
F4479805.0
sg21
F0.0
sg22
I4175000
sg23
I1729541
sg24
I47
sg25
I65
sg26
F6213983.0
sg27
F0.016195727084769126
sg28
I126027
sg29
I201955
sg30
I4484442
sg31
F1519.0
sg32
I1729541
ssS'SHARP VICTORIA T'
p327
(dp328
g3
I3136
sg4
I187469
sg5
F3.190439474152865
sg6
I116337
sg7
I00
sg8
F0.0
sg9
S'vicki.sharp@enron.com'
p329
sg11
I422158
sg12
F2.417931379107461
sg13
F0.0
sg14
I3112
sg15
I2477
sg16
F0.0
sg17
I136
sg18
I2401
sg19
F0.04411764705882353
sg20
F1022158.0
sg21
F0.0
sg22
I600000
sg23
I494136
sg24
I24
sg25
I6
sg26
F2070647.0
sg27
F0.007653061224489796
sg28
I213063
sg29
I248146
sg30
I1576511
sg31
F2507.0
sg32
I281073
ssS'JAEDICKE ROBERT'
p330
(dp331
g3
F0.0
sg4
F0.0
sg5
F0.19397799652576722
sg6
F0.0
sg7
I00
sg8
I-25000
sg9
F0.0
sg11
F0.0
sg12
F0.0
sg13
I-44093
sg14
F0.0
sg15
F0.0
sg16
F0.0
sg17
F0.0
sg18
F0.0
sg19
F0.0
sg20
F0.0
sg21
I108750
sg22
F0.0
sg23
I431750
sg24
F0.0
sg25
F0.0
sg26
F515500.0
sg27
F0.0
sg28
I44093
sg29
F0.0
sg30
I83750
sg31
F0.0
sg32
I431750
ssS'WINOKUR JR. HERBERT S'
p332
(dp333
g3
F0.0
sg4
F0.0
sg5
F0.0
sg6
I1413
sg7
I00
sg8
I-25000
sg9
F0.0
sg11
F0.0
sg12
F0.0
sg13
F0.0
sg14
F0.0
sg15
F0.0
sg16
F0.0
sg17
F0.0
sg18
F0.0
sg19
F0.0
sg20
F0.0
sg21
I108579
sg22
F0.0
sg23
F0.0
sg24
F0.0
sg25
F0.0
sg26
F84992.0
sg27
F0.0
sg28
F0.0
sg29
F0.0
sg30
I84992
sg31
F0.0
sg32
F0.0
ssS'BROWN MICHAEL'
p334
(dp335
g3
I1486
sg4
F0.0
sg5
F0.0
sg6
I49288
sg7
I00
sg8
F0.0
sg9
S'michael.brown@enron.com'
p336
sg11
F0.0
sg12
F0.0
sg13
F0.0
sg14
I1473
sg15
I761
sg16
F0.0
sg17
I41
sg18
F0.0
sg19
F0.024390243902439025
sg20
F0.0
sg21
F0.0
sg22
F0.0
sg23
F0.0
sg24
I13
sg25
I1
sg26
F49288.0
sg27
F0.008748317631224764
sg28
F0.0
sg29
F0.0
sg30
I49288
sg31
F775.0
sg32
F0.0
ssS'BADUM JAMES P'
p337
(dp338
g3
F0.0
sg4
I178980
sg5
F0.7077345559059333
sg6
I3486
sg7
I00
sg8
F0.0
sg9
F0.0
sg11
F0.0
sg12
F0.0
sg13
F0.0
sg14
F0.0
sg15
F0.0
sg16
F0.0
sg17
F0.0
sg18
F0.0
sg19
F0.0
sg20
F0.0
sg21
F0.0
sg22
F0.0
sg23
I257817
sg24
F0.0
sg25
F0.0
sg26
F440283.0
sg27
F0.0
sg28
F0.0
sg29
F0.0
sg30
I182466
sg31
F0.0
sg32
I257817
ssS'HUGHES JAMES A'
p339
(dp340
g3
I719
sg4
F0.0
sg5
F0.0
sg6
F0.0
sg7
I00
sg8
F0.0
sg9
S'james.hughes@enron.com'
p341
sg11
F0.0
sg12
F0.0
sg13
F0.0
sg14
I684
sg15
I589
sg16
F0.0
sg17
I34
sg18
F0.0
sg19
F0.14705882352941177
sg20
F0.0
sg21
F0.0
sg22
F0.0
sg23
I1118394
sg24
I35
sg25
I5
sg26
F1118394.0
sg27
F0.048678720445062586
sg28
I363428
sg29
F0.0
sg30
F0.0
sg31
F629.0
sg32
I754966
ssS'REYNOLDS LAWRENCE'
p342
(dp343
g3
F0.0
sg4
I51365
sg5
F0.09343561925213133
sg6
I8409
sg7
I00
sg8
I-200000
sg9
F0.0
sg11
I156250
sg12
F1.3089176559902616
sg13
I-140264
sg14
F0.0
sg15
F0.0
sg16
F0.0
sg17
F0.0
sg18
I202052
sg19
F0.0
sg20
F256250.0
sg21
F0.0
sg22
I100000
sg23
I4221891
sg24
F0.0
sg25
F0.0
sg26
F4616366.0
sg27
F0.0
sg28
I201483
sg29
I76399
sg30
I394475
sg31
F0.0
sg32
I4160672
ssS'DIMICHELE RICHARD G'
p344
(dp345
g3
F0.0
sg4
F0.0
sg5
F0.2847094333561519
sg6
I35812
sg7
I00
sg8
F0.0
sg9
S'richard.dimichele@enron.com'
p346
sg11
I694862
sg12
F3.8053487982708494
sg13
F0.0
sg14
F0.0
sg15
F0.0
sg16
F0.0
sg17
F0.0
sg18
I374689
sg19
F0.0
sg20
F1694862.0
sg21
F0.0
sg22
I1000000
sg23
I8317782
sg24
F0.0
sg25
F0.0
sg26
F10685933.0
sg27
F0.0
sg28
I126027
sg29
I262788
sg30
I2368151
sg31
F0.0
sg32
I8191755
ssS'BHATNAGAR SANJAY'
p347
(dp348
g3
I523
sg4
F0.0
sg5
F0.00891960489871761
sg6
I137864
sg7
I00
sg8
F0.0
sg9
S'sanjay.bhatnagar@enron.com'
p349
sg11
F0.0
sg12
F0.0
sg13
I-2604490
sg14
I523
sg15
I463
sg16
F0.0
sg17
I29
sg18
F0.0
sg19
F0.034482758620689655
sg20
F0.0
sg21
F0.0
sg22
F0.0
sS'total_stock_value'
p350
I15456290
sg24
I0
sg25
I1
sg26
F15594154.0
sg27
F0.0
sg28
I2604490
sg29
F0.0
sg30
I137864
sg31
F464.0
sg32
I15456290
ssS'CARTER REBECCA C'
p351
(dp352
g3
I312
sg4
F0.0
sg5
F0.0
sg6
F0.0
sg7
I00
sg8
I-159792
sg9
S'rebecca.carter@enron.com'
p353
sg11
I75000
sg12
F1.14587351848103
sg13
I-307301
sg14
I283
sg15
I196
sg16
F0.0
sg17
I15
sg18
I540
sg19
F0.4666666666666667
sg20
F375000.0
sg21
F0.0
sg22
I300000
sg23
F0.0
sg24
I29
sg25
I7
sg26
F477557.0
sg27
F0.09294871794871795
sg28
I307301
sg29
I261809
sg30
I477557
sg31
F232.0
sg32
F0.0
ssS'BUCHANAN HAROLD G'
p354
(dp355
g3
I1088
sg4
F0.0
sg5
F1.039558208190201
sg6
I600
sg7
I00
sg8
F0.0
sg9
S'john.buchanan@enron.com'
p356
sg11
I304805
sg12
F2.015990839337626
sg13
F0.0
sg14
I1088
sg15
I23
sg16
F0.0
sg17
I125
sg18
I1215
sg19
F0.0
sg20
F804805.0
sg21
F0.0
sg22
I500000
sg23
I1014505
sg24
I0
sg25
I0
sg26
F2069142.0
sg27
F0.0
sg28
I189041
sg29
I248017
sg30
I1054637
sg31
F23.0
sg32
I825464
ssS'YEAP SOON'
p357
(dp358
g3
F0.0
sg4
F0.0
sg5
F0.2858350885566358
sg6
I55097
sg7
I00
sg8
F0.0
sg9
F0.0
sg11
F0.0
sg12
F0.0
sg13
F0.0
sg14
F0.0
sg15
F0.0
sg16
F0.0
sg17
F0.0
sg18
F0.0
sg19
F0.0
sg20
F0.0
sg21
F0.0
sg22
F0.0
sg23
I192758
sg24
F0.0
sg25
F0.0
sg26
F247855.0
sg27
F0.0
sg28
F0.0
sg29
F0.0
sg30
I55097
sg31
F0.0
sg32
I192758
ssS'MURRAY JULIA H'
p359
(dp360
g3
I2192
sg4
F0.0
sg5
F1.35940923340603
sg6
I57580
sg7
I00
sg8
F0.0
sg9
S'julia.murray@enron.com'
p361
sg11
I125000
sg12
F1.744561330053558
sg13
F0.0
sg14
I2181
sg15
I395
sg16
F0.0
sg17
I45
sg18
I330
sg19
F0.044444444444444446
sg20
F525000.0
sg21
F0.0
sg22
I400000
sg23
I597461
sg24
I11
sg25
I2
sg26
F1409655.0
sg27
F0.005018248175182482
sg28
I196983
sg29
I229284
sg30
I812194
sg31
F408.0
sg32
I400478
ssS'GARLAND C KEVIN'
p362
(dp363
g3
I209
sg4
F0.0
sg5
F1.7479928092635968
sg6
I48405
sg7
I00
sg8
F0.0
sg9
S'kevin.garland@enron.com'
p364
sg11
I375304
sg12
F3.6646460814155017
sg13
F0.0
sg14
I199
sg15
I178
sg16
F0.0
sg17
I44
sg18
I60814
sg19
F0.6136363636363636
sg20
F1225304.0
sg21
F0.0
sg22
I850000
sg23
I896153
sg24
I10
sg25
I27
sg26
F2462622.0
sg27
F0.04784688995215311
sg28
I259907
sg29
I231946
sg30
I1566469
sg31
F215.0
sg32
I636246
ssS'DODSON KEITH'
p365
(dp366
g3
I176
sg4
F0.0
sg5
F0.0
sg6
I28164
sg7
I00
sg8
F0.0
sg9
S'keith.dodson@enron.com'
p367
sg11
F0.0
sg12
F0.3167377818400655
sg13
F0.0
sg14
I166
sg15
I114
sg16
F0.0
sg17
I14
sg18
I774
sg19
F0.21428571428571427
sg20
F70000.0
sg21
F0.0
sg22
I70000
sg23
F0.0
sg24
I10
sg25
I3
sg26
F319941.0
sg27
F0.056818181818181816
sg28
F0.0
sg29
I221003
sg30
I319941
sg31
F127.0
sg32
F0.0
ssS'YEAGER F SCOTT'
p368
(dp369
g3
F0.0
sg4
F0.0
sg5
F0.030316141060676205
sg6
I53947
sg7
I01
sg8
F0.0
sg9
S'scott.yeager@enron.com'
p370
sg11
F0.0
sg12
F0.0
sg13
F0.0
sg14
F0.0
sg15
F0.0
sg16
F0.0
sg17
F0.0
sg18
I147950
sg19
F0.0
sg20
F0.0
sg21
F0.0
sg22
F0.0
sg23
I11884758
sg24
F0.0
sg25
F0.0
sg26
F12245058.0
sg27
F0.0
sg28
I3576206
sg29
I158403
sg30
I360300
sg31
F0.0
sg32
I8308552
ssS'HIRKO JOSEPH'
p371
(dp372
g3
F0.0
sg4
I10259
sg5
F0.0029608272283383405
sg6
I77978
sg7
I01
sg8
F0.0
sg9
S'joe.hirko@enron.com'
p373
sg11
F0.0
sg12
F0.0
sg13
F0.0
sg14
F0.0
sg15
F0.0
sg16
F0.0
sg17
F0.0
sg18
I2856
sg19
F0.0
sg20
F0.0
sg21
F0.0
sg22
F0.0
sg23
I30766064
sg24
F0.0
sg25
F0.0
sg26
F30857157.0
sg27
F0.0
sg28
F0.0
sg29
F0.0
sg30
I91093
sg31
F0.0
sg32
I30766064
ssS'DIETRICH JANET R'
p374
(dp375
g3
I2572
sg4
F0.0
sg5
F0.756245687198506
sg6
I3475
sg7
I00
sg8
F0.0
sg9
S'janet.dietrich@enron.com'
p376
sg11
I556416
sg12
F2.3990403838464616
sg13
F0.0
sg14
I2267
sg15
I1902
sg16
F0.0
sg17
I63
sg18
I473
sg19
F0.2222222222222222
sg20
F1156416.0
sg21
F0.0
sg22
I600000
sg23
I1865087
sg24
I305
sg25
I14
sg26
F3275551.0
sg27
F0.11858475894245724
sg28
I315068
sg29
I250100
sg30
I1410464
sg31
F2221.0
sg32
I1550019
ssS'DERRICK JR. JAMES V'
p377
(dp378
g3
I2181
sg4
F0.0
sg5
F0.06238523862270835
sg6
I51124
sg7
I00
sg8
I-1284000
sg9
S'james.derrick@enron.com'
p379
sg11
I484000
sg12
F1.6247778624016247
sg13
I-1787380
sg14
I2117
sg15
I1401
sg16
F0.0
sg17
I909
sg18
I7482
sg19
F0.022002200220022004
sg20
F1284000.0
sg21
F0.0
sg22
I800000
sg23
I8831913
sg24
I64
sg25
I20
sg26
F9382894.0
sg27
F0.029344337459880788
sg28
I1787380
sg29
I492375
sg30
I550981
sg31
F1485.0
sg32
I8831913
ssS'FREVERT MARK A'
p380
(dp381
g3
I3275
sg4
I6426990
sg5
F1.179887274029155
sg6
I86987
sg7
I00
sg8
I-3367011
sg9
S'mark.frevert@enron.com'
p382
sg11
I1617011
sg12
F1.885134956811558
sg13
F0.0
sg14
I3033
sg15
I2979
sg16
I2000000
sg17
I21
sg18
I7427621
sg19
F0.2857142857142857
sg20
F3617011.0
sg21
F0.0
sg22
I2000000
sg23
I14622185
sg24
I242
sg25
I6
sg26
F31874715.0
sg27
F0.07389312977099237
sg28
I4188667
sg29
I1060932
sg30
I17252530
sg31
F3227.0
sg32
I10433518
ssS'PAI LOU L'
p383
(dp384
g3
F0.0
sg4
F0.0
sg5
F0.13113578719897154
sg6
I32047
sg7
I00
sg8
F0.0
sg9
S'lou.pai@enron.com'
p385
sg11
F0.0
sg12
F3.8185574253758414
sg13
F0.0
sg14
F0.0
sg15
F0.0
sg16
F0.0
sg17
F0.0
sg18
I1829457
sg19
F0.0
sg20
F1000000.0
sg21
F0.0
sg22
I1000000
sg23
I23817930
sg24
F0.0
sg25
F0.0
sg26
F26941313.0
sg27
F0.0
sg28
I8453763
sg29
I261879
sg30
I3123383
sg31
F0.0
sg32
I15364167
ssS'BAY FRANKLIN R'
p386
(dp387
g3
F0.0
sg4
I260455
sg5
F13.135112832069064
sg6
I129142
sg7
I00
sg8
I-201641
sg9
S'frank.bay@enron.com'
p388
sg11
F0.0
sg12
F1.6689545251615756
sg13
I-82782
sg14
F0.0
sg15
F0.0
sg16
F0.0
sg17
F0.0
sg18
I69
sg19
F0.0
sg20
F400000.0
sg21
F0.0
sg22
I400000
sg23
I63014
sg24
F0.0
sg25
F0.0
sg26
F890710.0
sg27
F0.0
sg28
I145796
sg29
I239671
sg30
I827696
sg31
F0.0
sg32
F0.0
ssS'HAYSLETT RODERICK J'
p389
(dp390
g3
I2649
sg4
F0.0
sg5
F0.0
sg6
F0.0
sg7
I00
sg8
F0.0
sg9
S'rod.hayslett@enron.com'
p391
sg11
F0.0
sg12
F0.0
sg13
F0.0
sg14
I2614
sg15
I571
sg16
F0.0
sg17
I1061
sg18
F0.0
sg19
F0.03581526861451461
sg20
F0.0
sg21
F0.0
sg22
F0.0
sg23
I346663
sg24
I35
sg25
I38
sg26
F346663.0
sg27
F0.01321253303133258
sg28
I346663
sg29
F0.0
sg30
F0.0
sg31
F644.0
sg32
F0.0
ssS'FUGH JOHN L'
p392
(dp393
g3
F0.0
sg4
I50591
sg5
F0.28683282495549334
sg6
F0.0
sg7
I00
sg8
F0.0
sg9
F0.0
sg11
F0.0
sg12
F0.0
sg13
F0.0
sg14
F0.0
sg15
F0.0
sg16
F0.0
sg17
F0.0
sg18
F0.0
sg19
F0.0
sg20
F0.0
sg21
F0.0
sg22
F0.0
sg23
I176378
sg24
F0.0
sg25
F0.0
sg26
F226969.0
sg27
F0.0
sg28
F0.0
sg29
F0.0
sg30
I50591
sg31
F0.0
sg32
I176378
ssS'FALLON JAMES B'
p394
(dp395
g3
I1755
sg4
F0.0
sg5
F1.5762054434082675
sg6
I95924
sg7
I00
sg8
F0.0
sg9
S'jim.fallon@enron.com'
p396
sg11
I374347
sg12
F8.207808580771403
sg13
F0.0
sg14
I1713
sg15
I1604
sg16
F0.0
sg17
I75
sg18
I401481
sg19
F0.49333333333333335
sg20
F2874347.0
sg21
F0.0
sg22
I2500000
sg23
I2332399
sg24
I42
sg25
I37
sg26
F6008739.0
sg27
F0.023931623931623933
sg28
I1392142
sg29
I304588
sg30
I3676340
sg31
F1683.0
sg32
I940257
ssS'KOENIG MARK E'
p397
(dp398
g3
I2374
sg4
F0.0
sg5
F0.8267580876589473
sg6
I127017
sg7
I01
sg8
F0.0
sg9
S'mark.koenig@enron.com'
p399
sg11
I300000
sg12
F2.2584579249288588
sg13
F0.0
sg14
I2321
sg15
I2271
sg16
F0.0
sg17
I61
sg18
I150458
sg19
F0.2459016393442623
sg20
F1000000.0
sg21
F0.0
sg22
I700000
sg23
I1920055
sg24
I53
sg25
I15
sg26
F3507476.0
sg27
F0.02232518955349621
sg28
I1248318
sg29
I309946
sg30
I1587421
sg31
F2339.0
sg32
I671737
ssS'SAVAGE FRANK'
p400
(dp401
g3
F0.0
sg4
F0.0
sg5
F0.0
sg6
F0.0
sg7
I00
sg8
I-121284
sg9
F0.0
sg11
F0.0
sg12
F0.0
sg13
F0.0
sg14
F0.0
sg15
F0.0
sg16
F0.0
sg17
F0.0
sg18
F0.0
sg19
F0.0
sg20
F0.0
sg21
I125034
sg22
F0.0
sg23
F0.0
sg24
F0.0
sg25
F0.0
sg26
F3750.0
sg27
F0.0
sg28
F0.0
sg29
F0.0
sg30
I3750
sg31
F0.0
sg32
F0.0
ssS'IZZO LAWRENCE L'
p402
(dp403
g3
I496
sg4
F0.0
sg5
F0.3401379386183458
sg6
I28093
sg7
I00
sg8
F0.0
sg9
S'larry.izzo@enron.com'
p404
sg11
I312500
sg12
F0.0
sg13
F0.0
sg14
I468
sg15
I437
sg16
F0.0
sg17
I19
sg18
I1553729
sg19
F0.2631578947368421
sg20
F312500.0
sg21
F0.0
sg22
F0.0
sg23
I5819980
sg24
I28
sg25
I5
sg26
F7799576.0
sg27
F0.056451612903225805
sg28
I3654808
sg29
I85274
sg30
I1979596
sg31
F470.0
sg32
I2165172
ssS'TILNEY ELIZABETH A'
p405
(dp406
g3
I460
sg4
F0.0
sg5
F0.3419337660803293
sg6
F0.0
sg7
I00
sg8
I-575000
sg9
S'elizabeth.tilney@enron.com'
p407
sg11
I275000
sg12
F1.2129151201998885
sg13
F0.0
sg14
I450
sg15
I379
sg16
F0.0
sg17
I19
sg18
I152055
sg19
F0.5789473684210527
sg20
F575000.0
sg21
F0.0
sg22
I300000
sg23
I1168042
sg24
I10
sg25
I11
sg26
F1567435.0
sg27
F0.021739130434782608
sg28
I576792
sg29
I247338
sg30
I399393
sg31
F400.0
sg32
I591250
ssS'MARTIN AMANDA K'
p408
(dp409
g3
I1522
sg4
I85430
sg5
F4.060760100197749
sg6
I8211
sg7
I00
sg8
F0.0
sg9
S'a..martin@enron.com'
p410
sg11
I5145434
sg12
F0.0
sg13
F0.0
sg14
I1514
sg15
I477
sg16
F0.0
sg17
I230
sg18
I2818454
sg19
F0.0
sg20
F5145434.0
sg21
F0.0
sg22
F0.0
sg23
I2070306
sg24
I8
sg25
I0
sg26
F10477322.0
sg27
F0.005256241787122208
sg28
F0.0
sg29
I349487
sg30
I8407016
sg31
F485.0
sg32
I2070306
ssS'BUY RICHARD B'
p411
(dp412
g3
I3523
sg4
I649584
sg5
F0.6839084097117989
sg6
F0.0
sg7
I00
sg8
I-694862
sg9
S'rick.buy@enron.com'
p413
sg11
I769862
sg12
F2.722767784211577
sg13
F0.0
sg14
I3367
sg15
I2333
sg16
F0.0
sg17
I1053
sg18
I400572
sg19
F0.06742640075973409
sg20
F1669862.0
sg21
F0.0
sg22
I900000
sg23
I3444470
sg24
I156
sg25
I71
sg26
F5800172.0
sg27
F0.04428044280442804
sg28
I901657
sg29
I330546
sg30
I2355702
sg31
F2560.0
sg32
I2542813
ssS'GRAMM WENDY L'
p414
(dp415
g3
F0.0
sg4
F0.0
sg5
F0.0
sg6
F0.0
sg7
I00
sg8
F0.0
sg9
F0.0
sg11
F0.0
sg12
F0.0
sg13
F0.0
sg14
F0.0
sg15
F0.0
sg16
F0.0
sg17
F0.0
sg18
F0.0
sg19
F0.0
sg20
F0.0
sg21
I119292
sg22
F0.0
sg23
F0.0
sg24
F0.0
sg25
F0.0
sg26
F119292.0
sg27
F0.0
sg28
F0.0
sg29
F0.0
sg30
I119292
sg31
F0.0
sg32
F0.0
ssS'CAUSEY RICHARD A'
p416
(dp417
g3
I1892
sg4
F0.0
sg5
F0.7468868689557377
sg6
I30674
sg7
I01
sg8
I-235000
sg9
S'richard.causey@enron.com'
p418
sg11
I350000
sg12
F2.4085416521150607
sg13
F0.0
sg14
I1834
sg15
I1585
sg16
F0.0
sg17
I49
sg18
I307895
sg19
F0.24489795918367346
sg20
F1350000.0
sg21
F0.0
sg22
I1000000
sg23
I2502063
sg24
I58
sg25
I12
sg26
F4370821.0
sg27
F0.0306553911205074
sg28
I2502063
sg29
I415189
sg30
I1868758
sg31
F1655.0
sg32
F0.0
ssS'TAYLOR MITCHELL S'
p419
(dp420
g3
I533
sg4
I227449
sg5
F0.2917620815540949
sg6
F0.0
sg7
I00
sg8
F0.0
sg9
S'mitchell.taylor@enron.com'
p421
sg11
F0.0
sg12
F2.2623240100447184
sg13
F0.0
sg14
I533
sg15
I300
sg16
F0.0
sg17
I29
sg18
F0.0
sg19
F0.0
sg20
F600000.0
sg21
F0.0
sg22
I600000
sg23
I3745048
sg24
I0
sg25
I0
sg26
F4837711.0
sg27
F0.0
sg28
I563798
sg29
I265214
sg30
I1092663
sg31
F300.0
sg32
I3181250
ssS'DONAHUE JR JEFFREY M'
p422
(dp423
g3
I865
sg4
F0.0
sg5
F0.8101477537215954
sg6
I96268
sg7
I00
sg8
I-300000
sg9
S'jeff.donahue@enron.com'
p424
sg11
F0.0
sg12
F2.8714900520816506
sg13
F0.0
sg14
I677
sg15
I772
sg16
F0.0
sg17
I22
sg18
I891
sg19
F0.5
sg20
F800000.0
sg21
F0.0
sg22
I800000
sg23
I1080988
sg24
I188
sg25
I11
sg26
F1956748.0
sg27
F0.21734104046242775
sg28
I315068
sg29
I278601
sg30
I875760
sg31
F971.0
sg32
I765920
ssS'GLISAN JR BEN F'
p425
(dp426
g3
I873
sg4
F0.0
sg5
F1.6341796117377778
sg6
I125978
sg7
I01
sg8
F0.0
sg9
S'ben.glisan@enron.com'
p427
sg11
I71023
sg12
F2.1820165469588146
sg13
F0.0
sg14
I821
sg15
I874
sg16
F0.0
sg17
I16
sg18
I200308
sg19
F0.375
sg20
F671023.0
sg21
F0.0
sg22
I600000
sg23
I778546
sg24
I52
sg25
I6
sg26
F2050830.0
sg27
F0.05956471935853379
sg28
I393818
sg29
I274975
sg30
I1272284
sg31
F932.0
sg32
I384728
ss.